
122.elf:     file format elf32-littleriscv


Disassembly of section .text:

00000000 <_start>:
       0:	00010297          	auipc	t0,0x10
       4:	09028293          	addi	t0,t0,144 # 10090 <trap_handler>
       8:	30529073          	csrw	mtvec,t0
       c:	3050e073          	csrsi	mtvec,1
      10:	00021297          	auipc	t0,0x21
      14:	7e428293          	addi	t0,t0,2020 # 217f4 <_PathLocale>
      18:	00022317          	auipc	t1,0x22
      1c:	aec30313          	addi	t1,t1,-1300 # 21b04 <_bss_end>

00000020 <_bss_clear>:
      20:	0002a023          	sw	zero,0(t0)
      24:	00428293          	addi	t0,t0,4
      28:	fe62ece3          	bltu	t0,t1,20 <_bss_clear>
      2c:	00040117          	auipc	sp,0x40
      30:	fd410113          	addi	sp,sp,-44 # 40000 <_stack>
      34:	0e8000ef          	jal	ra,11c <main>
      38:	3641006f          	j	1039c <exit>

0000003c <maxProfit>:
      3c:	00100793          	li	a5,1
      40:	0cb7d263          	bge	a5,a1,104 <maxProfit+0xc8>
      44:	00300793          	li	a5,3
      48:	0cb7d263          	bge	a5,a1,10c <maxProfit+0xd0>
      4c:	ffc58713          	addi	a4,a1,-4
      50:	00052783          	lw	a5,0(a0)
      54:	ffe77713          	andi	a4,a4,-2
      58:	00450693          	addi	a3,a0,4
      5c:	00370713          	addi	a4,a4,3
      60:	00000813          	li	a6,0
      64:	00100313          	li	t1,1
      68:	00000893          	li	a7,0
      6c:	0006a603          	lw	a2,0(a3)
      70:	00000e13          	li	t3,0
      74:	40f60eb3          	sub	t4,a2,a5
      78:	06c7d863          	bge	a5,a2,e8 <maxProfit+0xac>
      7c:	0046a783          	lw	a5,4(a3)
      80:	010e8e33          	add	t3,t4,a6
      84:	00000813          	li	a6,0
      88:	40c78eb3          	sub	t4,a5,a2
      8c:	06f65863          	bge	a2,a5,fc <maxProfit+0xc0>
      90:	01ce8833          	add	a6,t4,t3
      94:	00230313          	addi	t1,t1,2
      98:	00868693          	addi	a3,a3,8
      9c:	fce318e3          	bne	t1,a4,6c <maxProfit+0x30>
      a0:	00271793          	slli	a5,a4,0x2
      a4:	00f507b3          	add	a5,a0,a5
      a8:	0180006f          	j	c0 <maxProfit+0x84>
      ac:	00170713          	addi	a4,a4,1
      b0:	010888b3          	add	a7,a7,a6
      b4:	00478793          	addi	a5,a5,4
      b8:	00000813          	li	a6,0
      bc:	02b75263          	bge	a4,a1,e0 <maxProfit+0xa4>
      c0:	0007a603          	lw	a2,0(a5)
      c4:	ffc7a683          	lw	a3,-4(a5)
      c8:	40d60533          	sub	a0,a2,a3
      cc:	fec6d0e3          	bge	a3,a2,ac <maxProfit+0x70>
      d0:	00170713          	addi	a4,a4,1
      d4:	00a80833          	add	a6,a6,a0
      d8:	00478793          	addi	a5,a5,4
      dc:	feb742e3          	blt	a4,a1,c0 <maxProfit+0x84>
      e0:	01088533          	add	a0,a7,a6
      e4:	00008067          	ret
      e8:	0046a783          	lw	a5,4(a3)
      ec:	010888b3          	add	a7,a7,a6
      f0:	00000813          	li	a6,0
      f4:	40c78eb3          	sub	t4,a5,a2
      f8:	f8f64ce3          	blt	a2,a5,90 <maxProfit+0x54>
      fc:	01c888b3          	add	a7,a7,t3
     100:	f95ff06f          	j	94 <maxProfit+0x58>
     104:	00000513          	li	a0,0
     108:	00008067          	ret
     10c:	00000813          	li	a6,0
     110:	00100713          	li	a4,1
     114:	00000893          	li	a7,0
     118:	f89ff06f          	j	a0 <maxProfit+0x64>

0000011c <main>:
     11c:	00020537          	lui	a0,0x20
     120:	ff010113          	addi	sp,sp,-16
     124:	09800593          	li	a1,152
     128:	09050513          	addi	a0,a0,144 # 20090 <environ+0x4>
     12c:	00112623          	sw	ra,12(sp)
     130:	054000ef          	jal	ra,184 <printf>
     134:	00c12083          	lw	ra,12(sp)
     138:	00000513          	li	a0,0
     13c:	01010113          	addi	sp,sp,16
     140:	00008067          	ret

00000144 <_printf_r>:
     144:	fc010113          	addi	sp,sp,-64
     148:	02c12423          	sw	a2,40(sp)
     14c:	02d12623          	sw	a3,44(sp)
     150:	02e12823          	sw	a4,48(sp)
     154:	02f12a23          	sw	a5,52(sp)
     158:	03012c23          	sw	a6,56(sp)
     15c:	03112e23          	sw	a7,60(sp)
     160:	00058613          	mv	a2,a1
     164:	00852583          	lw	a1,8(a0)
     168:	02810693          	addi	a3,sp,40
     16c:	00112e23          	sw	ra,28(sp)
     170:	00d12623          	sw	a3,12(sp)
     174:	060000ef          	jal	ra,1d4 <_vfprintf_r>
     178:	01c12083          	lw	ra,28(sp)
     17c:	04010113          	addi	sp,sp,64
     180:	00008067          	ret

00000184 <printf>:
     184:	fc010113          	addi	sp,sp,-64
     188:	02c12423          	sw	a2,40(sp)
     18c:	02d12623          	sw	a3,44(sp)
     190:	00020317          	auipc	t1,0x20
     194:	ef032303          	lw	t1,-272(t1) # 20080 <_impure_ptr>
     198:	02b12223          	sw	a1,36(sp)
     19c:	02e12823          	sw	a4,48(sp)
     1a0:	02f12a23          	sw	a5,52(sp)
     1a4:	03012c23          	sw	a6,56(sp)
     1a8:	03112e23          	sw	a7,60(sp)
     1ac:	00832583          	lw	a1,8(t1)
     1b0:	02410693          	addi	a3,sp,36
     1b4:	00050613          	mv	a2,a0
     1b8:	00030513          	mv	a0,t1
     1bc:	00112e23          	sw	ra,28(sp)
     1c0:	00d12623          	sw	a3,12(sp)
     1c4:	010000ef          	jal	ra,1d4 <_vfprintf_r>
     1c8:	01c12083          	lw	ra,28(sp)
     1cc:	04010113          	addi	sp,sp,64
     1d0:	00008067          	ret

000001d4 <_vfprintf_r>:
     1d4:	e7010113          	addi	sp,sp,-400
     1d8:	18112623          	sw	ra,396(sp)
     1dc:	00b12423          	sw	a1,8(sp)
     1e0:	00c12623          	sw	a2,12(sp)
     1e4:	00d12a23          	sw	a3,20(sp)
     1e8:	17312e23          	sw	s3,380(sp)
     1ec:	18812423          	sw	s0,392(sp)
     1f0:	18912223          	sw	s1,388(sp)
     1f4:	19212023          	sw	s2,384(sp)
     1f8:	17412c23          	sw	s4,376(sp)
     1fc:	17512a23          	sw	s5,372(sp)
     200:	17612823          	sw	s6,368(sp)
     204:	17712623          	sw	s7,364(sp)
     208:	17812423          	sw	s8,360(sp)
     20c:	17912223          	sw	s9,356(sp)
     210:	17a12023          	sw	s10,352(sp)
     214:	15b12e23          	sw	s11,348(sp)
     218:	00050993          	mv	s3,a0
     21c:	6d8050ef          	jal	ra,58f4 <_localeconv_r>
     220:	00052783          	lw	a5,0(a0)
     224:	00078513          	mv	a0,a5
     228:	02f12c23          	sw	a5,56(sp)
     22c:	374090ef          	jal	ra,95a0 <strlen>
     230:	00050713          	mv	a4,a0
     234:	00800613          	li	a2,8
     238:	00000593          	li	a1,0
     23c:	09010513          	addi	a0,sp,144
     240:	02e12a23          	sw	a4,52(sp)
     244:	131070ef          	jal	ra,7b74 <memset>
     248:	00c12783          	lw	a5,12(sp)
     24c:	00098663          	beqz	s3,258 <_vfprintf_r+0x84>
     250:	0389a703          	lw	a4,56(s3)
     254:	72070063          	beqz	a4,974 <_vfprintf_r+0x7a0>
     258:	00812703          	lw	a4,8(sp)
     25c:	06472683          	lw	a3,100(a4)
     260:	00c71703          	lh	a4,12(a4)
     264:	0016f693          	andi	a3,a3,1
     268:	00069863          	bnez	a3,278 <_vfprintf_r+0xa4>
     26c:	20077693          	andi	a3,a4,512
     270:	00069463          	bnez	a3,278 <_vfprintf_r+0xa4>
     274:	3700106f          	j	15e4 <_vfprintf_r+0x1410>
     278:	01271693          	slli	a3,a4,0x12
     27c:	0206c863          	bltz	a3,2ac <_vfprintf_r+0xd8>
     280:	00812583          	lw	a1,8(sp)
     284:	00002637          	lui	a2,0x2
     288:	00c76733          	or	a4,a4,a2
     28c:	0645a683          	lw	a3,100(a1)
     290:	ffffe637          	lui	a2,0xffffe
     294:	01071713          	slli	a4,a4,0x10
     298:	fff60613          	addi	a2,a2,-1 # ffffdfff <_stack+0xfffbdfff>
     29c:	41075713          	srai	a4,a4,0x10
     2a0:	00c6f6b3          	and	a3,a3,a2
     2a4:	00e59623          	sh	a4,12(a1)
     2a8:	06d5a223          	sw	a3,100(a1)
     2ac:	00877693          	andi	a3,a4,8
     2b0:	26068863          	beqz	a3,520 <_vfprintf_r+0x34c>
     2b4:	00812683          	lw	a3,8(sp)
     2b8:	0106a683          	lw	a3,16(a3)
     2bc:	26068263          	beqz	a3,520 <_vfprintf_r+0x34c>
     2c0:	01a77693          	andi	a3,a4,26
     2c4:	00a00613          	li	a2,10
     2c8:	28c68463          	beq	a3,a2,550 <_vfprintf_r+0x37c>
     2cc:	0ac10713          	addi	a4,sp,172
     2d0:	0ae12023          	sw	a4,160(sp)
     2d4:	0a012423          	sw	zero,168(sp)
     2d8:	0a012223          	sw	zero,164(sp)
     2dc:	02012023          	sw	zero,32(sp)
     2e0:	02012623          	sw	zero,44(sp)
     2e4:	02012823          	sw	zero,48(sp)
     2e8:	00070413          	mv	s0,a4
     2ec:	02012e23          	sw	zero,60(sp)
     2f0:	04012223          	sw	zero,68(sp)
     2f4:	04012023          	sw	zero,64(sp)
     2f8:	04012423          	sw	zero,72(sp)
     2fc:	04012623          	sw	zero,76(sp)
     300:	00012623          	sw	zero,12(sp)
     304:	00021d17          	auipc	s10,0x21
     308:	f5cd0d13          	addi	s10,s10,-164 # 21260 <__global_locale>
     30c:	02500b13          	li	s6,37
     310:	00078b93          	mv	s7,a5
     314:	000b8493          	mv	s1,s7
     318:	0e4d2903          	lw	s2,228(s10)
     31c:	2ac060ef          	jal	ra,65c8 <__locale_mb_cur_max>
     320:	00050693          	mv	a3,a0
     324:	09010713          	addi	a4,sp,144
     328:	00048613          	mv	a2,s1
     32c:	08010593          	addi	a1,sp,128
     330:	00098513          	mv	a0,s3
     334:	000900e7          	jalr	s2
     338:	2a050c63          	beqz	a0,5f0 <_vfprintf_r+0x41c>
     33c:	28054c63          	bltz	a0,5d4 <_vfprintf_r+0x400>
     340:	08012783          	lw	a5,128(sp)
     344:	01678663          	beq	a5,s6,350 <_vfprintf_r+0x17c>
     348:	00a484b3          	add	s1,s1,a0
     34c:	fcdff06f          	j	318 <_vfprintf_r+0x144>
     350:	00050c13          	mv	s8,a0
     354:	41748cb3          	sub	s9,s1,s7
     358:	2b749263          	bne	s1,s7,5fc <_vfprintf_r+0x428>
     35c:	fff00313          	li	t1,-1
     360:	0014ce03          	lbu	t3,1(s1)
     364:	06010ba3          	sb	zero,119(sp)
     368:	00148493          	addi	s1,s1,1
     36c:	00000913          	li	s2,0
     370:	00000a93          	li	s5,0
     374:	05a00c13          	li	s8,90
     378:	00030a13          	mv	s4,t1
     37c:	00148493          	addi	s1,s1,1
     380:	fe0e0793          	addi	a5,t3,-32
     384:	04fc6a63          	bltu	s8,a5,3d8 <_vfprintf_r+0x204>
     388:	00020717          	auipc	a4,0x20
     38c:	d5070713          	addi	a4,a4,-688 # 200d8 <environ+0x4c>
     390:	00279793          	slli	a5,a5,0x2
     394:	00e787b3          	add	a5,a5,a4
     398:	0007a783          	lw	a5,0(a5)
     39c:	00e787b3          	add	a5,a5,a4
     3a0:	00078067          	jr	a5
     3a4:	00000913          	li	s2,0
     3a8:	fd0e0693          	addi	a3,t3,-48
     3ac:	00900713          	li	a4,9
     3b0:	0004ce03          	lbu	t3,0(s1)
     3b4:	00291793          	slli	a5,s2,0x2
     3b8:	012787b3          	add	a5,a5,s2
     3bc:	00179793          	slli	a5,a5,0x1
     3c0:	00f68933          	add	s2,a3,a5
     3c4:	fd0e0693          	addi	a3,t3,-48
     3c8:	00148493          	addi	s1,s1,1
     3cc:	fed772e3          	bgeu	a4,a3,3b0 <_vfprintf_r+0x1dc>
     3d0:	fe0e0793          	addi	a5,t3,-32
     3d4:	fafc7ae3          	bgeu	s8,a5,388 <_vfprintf_r+0x1b4>
     3d8:	260e0063          	beqz	t3,638 <_vfprintf_r+0x464>
     3dc:	0fc10623          	sb	t3,236(sp)
     3e0:	06010ba3          	sb	zero,119(sp)
     3e4:	00100c13          	li	s8,1
     3e8:	00000613          	li	a2,0
     3ec:	00012823          	sw	zero,16(sp)
     3f0:	00100c93          	li	s9,1
     3f4:	00000313          	li	t1,0
     3f8:	02012423          	sw	zero,40(sp)
     3fc:	02012223          	sw	zero,36(sp)
     400:	00012c23          	sw	zero,24(sp)
     404:	0ec10b93          	addi	s7,sp,236
     408:	002af293          	andi	t0,s5,2
     40c:	00028463          	beqz	t0,414 <_vfprintf_r+0x240>
     410:	002c0c13          	addi	s8,s8,2
     414:	084afd93          	andi	s11,s5,132
     418:	000d9663          	bnez	s11,424 <_vfprintf_r+0x250>
     41c:	41890733          	sub	a4,s2,s8
     420:	4ce040e3          	bgtz	a4,10e0 <_vfprintf_r+0xf0c>
     424:	0a812a03          	lw	s4,168(sp)
     428:	02060a63          	beqz	a2,45c <_vfprintf_r+0x288>
     42c:	0a412603          	lw	a2,164(sp)
     430:	07710593          	addi	a1,sp,119
     434:	001a0a13          	addi	s4,s4,1
     438:	00160613          	addi	a2,a2,1
     43c:	00100793          	li	a5,1
     440:	00b42023          	sw	a1,0(s0)
     444:	00f42223          	sw	a5,4(s0)
     448:	0b412423          	sw	s4,168(sp)
     44c:	0ac12223          	sw	a2,164(sp)
     450:	00700593          	li	a1,7
     454:	00840413          	addi	s0,s0,8
     458:	3ac5cc63          	blt	a1,a2,810 <_vfprintf_r+0x63c>
     45c:	02028a63          	beqz	t0,490 <_vfprintf_r+0x2bc>
     460:	0a412603          	lw	a2,164(sp)
     464:	07810593          	addi	a1,sp,120
     468:	00b42023          	sw	a1,0(s0)
     46c:	002a0a13          	addi	s4,s4,2
     470:	00200593          	li	a1,2
     474:	00160613          	addi	a2,a2,1
     478:	00b42223          	sw	a1,4(s0)
     47c:	0b412423          	sw	s4,168(sp)
     480:	0ac12223          	sw	a2,164(sp)
     484:	00700593          	li	a1,7
     488:	00840413          	addi	s0,s0,8
     48c:	52c5cae3          	blt	a1,a2,11c0 <_vfprintf_r+0xfec>
     490:	08000613          	li	a2,128
     494:	28cd80e3          	beq	s11,a2,f14 <_vfprintf_r+0xd40>
     498:	41930db3          	sub	s11,t1,s9
     49c:	37b046e3          	bgtz	s11,1008 <_vfprintf_r+0xe34>
     4a0:	100af613          	andi	a2,s5,256
     4a4:	06061ee3          	bnez	a2,d20 <_vfprintf_r+0xb4c>
     4a8:	0a412783          	lw	a5,164(sp)
     4ac:	014c8733          	add	a4,s9,s4
     4b0:	01742023          	sw	s7,0(s0)
     4b4:	00178793          	addi	a5,a5,1
     4b8:	01942223          	sw	s9,4(s0)
     4bc:	0ae12423          	sw	a4,168(sp)
     4c0:	0af12223          	sw	a5,164(sp)
     4c4:	00700693          	li	a3,7
     4c8:	46f6c863          	blt	a3,a5,938 <_vfprintf_r+0x764>
     4cc:	00840413          	addi	s0,s0,8
     4d0:	004af813          	andi	a6,s5,4
     4d4:	00080663          	beqz	a6,4e0 <_vfprintf_r+0x30c>
     4d8:	41890cb3          	sub	s9,s2,s8
     4dc:	51904ae3          	bgtz	s9,11f0 <_vfprintf_r+0x101c>
     4e0:	00090e93          	mv	t4,s2
     4e4:	01895463          	bge	s2,s8,4ec <_vfprintf_r+0x318>
     4e8:	000c0e93          	mv	t4,s8
     4ec:	00c12783          	lw	a5,12(sp)
     4f0:	01d787b3          	add	a5,a5,t4
     4f4:	00f12623          	sw	a5,12(sp)
     4f8:	16071c63          	bnez	a4,670 <_vfprintf_r+0x49c>
     4fc:	01012783          	lw	a5,16(sp)
     500:	0a012223          	sw	zero,164(sp)
     504:	00078863          	beqz	a5,514 <_vfprintf_r+0x340>
     508:	01012583          	lw	a1,16(sp)
     50c:	00098513          	mv	a0,s3
     510:	779040ef          	jal	ra,5488 <_free_r>
     514:	0ac10413          	addi	s0,sp,172
     518:	00048b93          	mv	s7,s1
     51c:	df9ff06f          	j	314 <_vfprintf_r+0x140>
     520:	00812403          	lw	s0,8(sp)
     524:	00098513          	mv	a0,s3
     528:	00f12623          	sw	a5,12(sp)
     52c:	00040593          	mv	a1,s0
     530:	375020ef          	jal	ra,30a4 <__swsetup_r>
     534:	00050463          	beqz	a0,53c <_vfprintf_r+0x368>
     538:	5580206f          	j	2a90 <_vfprintf_r+0x28bc>
     53c:	00c41703          	lh	a4,12(s0)
     540:	00a00613          	li	a2,10
     544:	00c12783          	lw	a5,12(sp)
     548:	01a77693          	andi	a3,a4,26
     54c:	d8c690e3          	bne	a3,a2,2cc <_vfprintf_r+0xf8>
     550:	00812603          	lw	a2,8(sp)
     554:	00e61683          	lh	a3,14(a2)
     558:	d606cae3          	bltz	a3,2cc <_vfprintf_r+0xf8>
     55c:	06462683          	lw	a3,100(a2)
     560:	0016f693          	andi	a3,a3,1
     564:	00069863          	bnez	a3,574 <_vfprintf_r+0x3a0>
     568:	20077713          	andi	a4,a4,512
     56c:	00071463          	bnez	a4,574 <_vfprintf_r+0x3a0>
     570:	3810106f          	j	20f0 <_vfprintf_r+0x1f1c>
     574:	01412683          	lw	a3,20(sp)
     578:	00812583          	lw	a1,8(sp)
     57c:	00078613          	mv	a2,a5
     580:	00098513          	mv	a0,s3
     584:	0c5020ef          	jal	ra,2e48 <__sbprintf>
     588:	00a12623          	sw	a0,12(sp)
     58c:	1300006f          	j	6bc <_vfprintf_r+0x4e8>
     590:	00098513          	mv	a0,s3
     594:	360050ef          	jal	ra,58f4 <_localeconv_r>
     598:	00452783          	lw	a5,4(a0)
     59c:	00078513          	mv	a0,a5
     5a0:	04f12623          	sw	a5,76(sp)
     5a4:	7fd080ef          	jal	ra,95a0 <strlen>
     5a8:	00050793          	mv	a5,a0
     5ac:	00098513          	mv	a0,s3
     5b0:	00078c93          	mv	s9,a5
     5b4:	04f12423          	sw	a5,72(sp)
     5b8:	33c050ef          	jal	ra,58f4 <_localeconv_r>
     5bc:	00852703          	lw	a4,8(a0)
     5c0:	04e12023          	sw	a4,64(sp)
     5c4:	000c8463          	beqz	s9,5cc <_vfprintf_r+0x3f8>
     5c8:	1ac0106f          	j	1774 <_vfprintf_r+0x15a0>
     5cc:	0004ce03          	lbu	t3,0(s1)
     5d0:	dadff06f          	j	37c <_vfprintf_r+0x1a8>
     5d4:	00800613          	li	a2,8
     5d8:	00000593          	li	a1,0
     5dc:	09010513          	addi	a0,sp,144
     5e0:	594070ef          	jal	ra,7b74 <memset>
     5e4:	00100513          	li	a0,1
     5e8:	00a484b3          	add	s1,s1,a0
     5ec:	d2dff06f          	j	318 <_vfprintf_r+0x144>
     5f0:	00050c13          	mv	s8,a0
     5f4:	41748cb3          	sub	s9,s1,s7
     5f8:	05748063          	beq	s1,s7,638 <_vfprintf_r+0x464>
     5fc:	0a812a03          	lw	s4,168(sp)
     600:	0a412683          	lw	a3,164(sp)
     604:	01742023          	sw	s7,0(s0)
     608:	019a0733          	add	a4,s4,s9
     60c:	00168693          	addi	a3,a3,1
     610:	01942223          	sw	s9,4(s0)
     614:	0ae12423          	sw	a4,168(sp)
     618:	0ad12223          	sw	a3,164(sp)
     61c:	00700713          	li	a4,7
     620:	00840413          	addi	s0,s0,8
     624:	02d74863          	blt	a4,a3,654 <_vfprintf_r+0x480>
     628:	00c12783          	lw	a5,12(sp)
     62c:	019787b3          	add	a5,a5,s9
     630:	00f12623          	sw	a5,12(sp)
     634:	d20c14e3          	bnez	s8,35c <_vfprintf_r+0x188>
     638:	0a812783          	lw	a5,168(sp)
     63c:	00078463          	beqz	a5,644 <_vfprintf_r+0x470>
     640:	2590106f          	j	2098 <_vfprintf_r+0x1ec4>
     644:	00812783          	lw	a5,8(sp)
     648:	0a012223          	sw	zero,164(sp)
     64c:	00c79783          	lh	a5,12(a5)
     650:	0500006f          	j	6a0 <_vfprintf_r+0x4cc>
     654:	00812583          	lw	a1,8(sp)
     658:	0a010613          	addi	a2,sp,160
     65c:	00098513          	mv	a0,s3
     660:	40c090ef          	jal	ra,9a6c <__sprint_r>
     664:	02051a63          	bnez	a0,698 <_vfprintf_r+0x4c4>
     668:	0ac10413          	addi	s0,sp,172
     66c:	fbdff06f          	j	628 <_vfprintf_r+0x454>
     670:	00812583          	lw	a1,8(sp)
     674:	0a010613          	addi	a2,sp,160
     678:	00098513          	mv	a0,s3
     67c:	3f0090ef          	jal	ra,9a6c <__sprint_r>
     680:	e6050ee3          	beqz	a0,4fc <_vfprintf_r+0x328>
     684:	01012f03          	lw	t5,16(sp)
     688:	000f0863          	beqz	t5,698 <_vfprintf_r+0x4c4>
     68c:	000f0593          	mv	a1,t5
     690:	00098513          	mv	a0,s3
     694:	5f5040ef          	jal	ra,5488 <_free_r>
     698:	00812783          	lw	a5,8(sp)
     69c:	00c79783          	lh	a5,12(a5)
     6a0:	00812703          	lw	a4,8(sp)
     6a4:	06472703          	lw	a4,100(a4)
     6a8:	00177713          	andi	a4,a4,1
     6ac:	2a070663          	beqz	a4,958 <_vfprintf_r+0x784>
     6b0:	0407f793          	andi	a5,a5,64
     6b4:	00078463          	beqz	a5,6bc <_vfprintf_r+0x4e8>
     6b8:	4040206f          	j	2abc <_vfprintf_r+0x28e8>
     6bc:	18c12083          	lw	ra,396(sp)
     6c0:	18812403          	lw	s0,392(sp)
     6c4:	00c12503          	lw	a0,12(sp)
     6c8:	18412483          	lw	s1,388(sp)
     6cc:	18012903          	lw	s2,384(sp)
     6d0:	17c12983          	lw	s3,380(sp)
     6d4:	17812a03          	lw	s4,376(sp)
     6d8:	17412a83          	lw	s5,372(sp)
     6dc:	17012b03          	lw	s6,368(sp)
     6e0:	16c12b83          	lw	s7,364(sp)
     6e4:	16812c03          	lw	s8,360(sp)
     6e8:	16412c83          	lw	s9,356(sp)
     6ec:	16012d03          	lw	s10,352(sp)
     6f0:	15c12d83          	lw	s11,348(sp)
     6f4:	19010113          	addi	sp,sp,400
     6f8:	00008067          	ret
     6fc:	008af713          	andi	a4,s5,8
     700:	000a0313          	mv	t1,s4
     704:	00070463          	beqz	a4,70c <_vfprintf_r+0x538>
     708:	0180106f          	j	1720 <_vfprintf_r+0x154c>
     70c:	01412783          	lw	a5,20(sp)
     710:	00778a13          	addi	s4,a5,7
     714:	ff8a7a13          	andi	s4,s4,-8
     718:	000a2783          	lw	a5,0(s4)
     71c:	02f12623          	sw	a5,44(sp)
     720:	004a2783          	lw	a5,4(s4)
     724:	02f12823          	sw	a5,48(sp)
     728:	008a0793          	addi	a5,s4,8
     72c:	00f12a23          	sw	a5,20(sp)
     730:	03012a03          	lw	s4,48(sp)
     734:	00020697          	auipc	a3,0x20
     738:	8dc68693          	addi	a3,a3,-1828 # 20010 <__DTOR_END__>
     73c:	0006ac03          	lw	s8,0(a3)
     740:	001a1713          	slli	a4,s4,0x1
     744:	00175d93          	srli	s11,a4,0x1
     748:	0046ac83          	lw	s9,4(a3)
     74c:	02c12703          	lw	a4,44(sp)
     750:	000d8593          	mv	a1,s11
     754:	000c0613          	mv	a2,s8
     758:	00070513          	mv	a0,a4
     75c:	000c8693          	mv	a3,s9
     760:	00612c23          	sw	t1,24(sp)
     764:	01c12823          	sw	t3,16(sp)
     768:	29c0f0ef          	jal	ra,fa04 <__unorddf2>
     76c:	01012e03          	lw	t3,16(sp)
     770:	01812303          	lw	t1,24(sp)
     774:	00050463          	beqz	a0,77c <_vfprintf_r+0x5a8>
     778:	38c0106f          	j	1b04 <_vfprintf_r+0x1930>
     77c:	02c12683          	lw	a3,44(sp)
     780:	000d8593          	mv	a1,s11
     784:	000c0613          	mv	a2,s8
     788:	00068513          	mv	a0,a3
     78c:	000c8693          	mv	a3,s9
     790:	13c0e0ef          	jal	ra,e8cc <__ledf2>
     794:	01012e03          	lw	t3,16(sp)
     798:	01812303          	lw	t1,24(sp)
     79c:	00a04463          	bgtz	a0,7a4 <_vfprintf_r+0x5d0>
     7a0:	3640106f          	j	1b04 <_vfprintf_r+0x1930>
     7a4:	02c12703          	lw	a4,44(sp)
     7a8:	000a0593          	mv	a1,s4
     7ac:	00000613          	li	a2,0
     7b0:	00070513          	mv	a0,a4
     7b4:	00000693          	li	a3,0
     7b8:	1140e0ef          	jal	ra,e8cc <__ledf2>
     7bc:	01012e03          	lw	t3,16(sp)
     7c0:	00055463          	bgez	a0,7c8 <_vfprintf_r+0x5f4>
     7c4:	5850106f          	j	2548 <_vfprintf_r+0x2374>
     7c8:	07714603          	lbu	a2,119(sp)
     7cc:	04700713          	li	a4,71
     7d0:	00020b97          	auipc	s7,0x20
     7d4:	8c4b8b93          	addi	s7,s7,-1852 # 20094 <environ+0x8>
     7d8:	01c75663          	bge	a4,t3,7e4 <_vfprintf_r+0x610>
     7dc:	00020b97          	auipc	s7,0x20
     7e0:	8bcb8b93          	addi	s7,s7,-1860 # 20098 <environ+0xc>
     7e4:	00012823          	sw	zero,16(sp)
     7e8:	02012423          	sw	zero,40(sp)
     7ec:	02012223          	sw	zero,36(sp)
     7f0:	00012c23          	sw	zero,24(sp)
     7f4:	f7fafa93          	andi	s5,s5,-129
     7f8:	00300c13          	li	s8,3
     7fc:	00300c93          	li	s9,3
     800:	00000313          	li	t1,0
     804:	c00602e3          	beqz	a2,408 <_vfprintf_r+0x234>
     808:	001c0c13          	addi	s8,s8,1
     80c:	bfdff06f          	j	408 <_vfprintf_r+0x234>
     810:	00812583          	lw	a1,8(sp)
     814:	0a010613          	addi	a2,sp,160
     818:	00098513          	mv	a0,s3
     81c:	04612c23          	sw	t1,88(sp)
     820:	05c12a23          	sw	t3,84(sp)
     824:	04512823          	sw	t0,80(sp)
     828:	244090ef          	jal	ra,9a6c <__sprint_r>
     82c:	e4051ce3          	bnez	a0,684 <_vfprintf_r+0x4b0>
     830:	0a812a03          	lw	s4,168(sp)
     834:	05812303          	lw	t1,88(sp)
     838:	05412e03          	lw	t3,84(sp)
     83c:	05012283          	lw	t0,80(sp)
     840:	0ac10413          	addi	s0,sp,172
     844:	c19ff06f          	j	45c <_vfprintf_r+0x288>
     848:	02012783          	lw	a5,32(sp)
     84c:	00100693          	li	a3,1
     850:	00840d93          	addi	s11,s0,8
     854:	001a0713          	addi	a4,s4,1
     858:	3cf6dee3          	bge	a3,a5,1434 <_vfprintf_r+0x1260>
     85c:	0a412c83          	lw	s9,164(sp)
     860:	00100693          	li	a3,1
     864:	00d42223          	sw	a3,4(s0)
     868:	001c8c93          	addi	s9,s9,1
     86c:	01742023          	sw	s7,0(s0)
     870:	0ae12423          	sw	a4,168(sp)
     874:	0b912223          	sw	s9,164(sp)
     878:	00700693          	li	a3,7
     87c:	0196d463          	bge	a3,s9,884 <_vfprintf_r+0x6b0>
     880:	0e00106f          	j	1960 <_vfprintf_r+0x178c>
     884:	03412783          	lw	a5,52(sp)
     888:	03812683          	lw	a3,56(sp)
     88c:	001c8c93          	addi	s9,s9,1
     890:	00e78733          	add	a4,a5,a4
     894:	00dda023          	sw	a3,0(s11)
     898:	00fda223          	sw	a5,4(s11)
     89c:	0ae12423          	sw	a4,168(sp)
     8a0:	0b912223          	sw	s9,164(sp)
     8a4:	00700693          	li	a3,7
     8a8:	008d8d93          	addi	s11,s11,8
     8ac:	0196d463          	bge	a3,s9,8b4 <_vfprintf_r+0x6e0>
     8b0:	0d80106f          	j	1988 <_vfprintf_r+0x17b4>
     8b4:	02c12603          	lw	a2,44(sp)
     8b8:	03012683          	lw	a3,48(sp)
     8bc:	00e12c23          	sw	a4,24(sp)
     8c0:	00060513          	mv	a0,a2
     8c4:	00068593          	mv	a1,a3
     8c8:	00000613          	li	a2,0
     8cc:	00000693          	li	a3,0
     8d0:	66d0d0ef          	jal	ra,e73c <__eqdf2>
     8d4:	02012783          	lw	a5,32(sp)
     8d8:	01812703          	lw	a4,24(sp)
     8dc:	fff78413          	addi	s0,a5,-1
     8e0:	3a0500e3          	beqz	a0,1480 <_vfprintf_r+0x12ac>
     8e4:	001b8793          	addi	a5,s7,1
     8e8:	001c8c93          	addi	s9,s9,1
     8ec:	00870733          	add	a4,a4,s0
     8f0:	00fda023          	sw	a5,0(s11)
     8f4:	008da223          	sw	s0,4(s11)
     8f8:	0ae12423          	sw	a4,168(sp)
     8fc:	0b912223          	sw	s9,164(sp)
     900:	00700793          	li	a5,7
     904:	008d8d93          	addi	s11,s11,8
     908:	3597cae3          	blt	a5,s9,145c <_vfprintf_r+0x1288>
     90c:	04412683          	lw	a3,68(sp)
     910:	08810793          	addi	a5,sp,136
     914:	001c8c93          	addi	s9,s9,1
     918:	00e68733          	add	a4,a3,a4
     91c:	00fda023          	sw	a5,0(s11)
     920:	00dda223          	sw	a3,4(s11)
     924:	0ae12423          	sw	a4,168(sp)
     928:	0b912223          	sw	s9,164(sp)
     92c:	00700793          	li	a5,7
     930:	008d8413          	addi	s0,s11,8
     934:	b997dee3          	bge	a5,s9,4d0 <_vfprintf_r+0x2fc>
     938:	00812583          	lw	a1,8(sp)
     93c:	0a010613          	addi	a2,sp,160
     940:	00098513          	mv	a0,s3
     944:	128090ef          	jal	ra,9a6c <__sprint_r>
     948:	d2051ee3          	bnez	a0,684 <_vfprintf_r+0x4b0>
     94c:	0a812703          	lw	a4,168(sp)
     950:	0ac10413          	addi	s0,sp,172
     954:	b7dff06f          	j	4d0 <_vfprintf_r+0x2fc>
     958:	2007f713          	andi	a4,a5,512
     95c:	d4071ae3          	bnez	a4,6b0 <_vfprintf_r+0x4dc>
     960:	00812403          	lw	s0,8(sp)
     964:	05842503          	lw	a0,88(s0)
     968:	4ad050ef          	jal	ra,6614 <__retarget_lock_release_recursive>
     96c:	00c41783          	lh	a5,12(s0)
     970:	d41ff06f          	j	6b0 <_vfprintf_r+0x4dc>
     974:	00098513          	mv	a0,s3
     978:	634040ef          	jal	ra,4fac <__sinit>
     97c:	00c12783          	lw	a5,12(sp)
     980:	8d9ff06f          	j	258 <_vfprintf_r+0x84>
     984:	0004ce03          	lbu	t3,0(s1)
     988:	020aea93          	ori	s5,s5,32
     98c:	9f1ff06f          	j	37c <_vfprintf_r+0x1a8>
     990:	01412703          	lw	a4,20(sp)
     994:	04300793          	li	a5,67
     998:	00470a13          	addi	s4,a4,4
     99c:	72fe0ae3          	beq	t3,a5,18d0 <_vfprintf_r+0x16fc>
     9a0:	010af793          	andi	a5,s5,16
     9a4:	720796e3          	bnez	a5,18d0 <_vfprintf_r+0x16fc>
     9a8:	01412783          	lw	a5,20(sp)
     9ac:	00100c13          	li	s8,1
     9b0:	00100c93          	li	s9,1
     9b4:	0007a783          	lw	a5,0(a5)
     9b8:	0ec10b93          	addi	s7,sp,236
     9bc:	0ef10623          	sb	a5,236(sp)
     9c0:	06010ba3          	sb	zero,119(sp)
     9c4:	01412a23          	sw	s4,20(sp)
     9c8:	00000613          	li	a2,0
     9cc:	00012823          	sw	zero,16(sp)
     9d0:	00000313          	li	t1,0
     9d4:	02012423          	sw	zero,40(sp)
     9d8:	02012223          	sw	zero,36(sp)
     9dc:	00012c23          	sw	zero,24(sp)
     9e0:	a29ff06f          	j	408 <_vfprintf_r+0x234>
     9e4:	01412783          	lw	a5,20(sp)
     9e8:	06010ba3          	sb	zero,119(sp)
     9ec:	000a0313          	mv	t1,s4
     9f0:	0007ab83          	lw	s7,0(a5)
     9f4:	00478d93          	addi	s11,a5,4
     9f8:	6a0b80e3          	beqz	s7,1898 <_vfprintf_r+0x16c4>
     9fc:	05300713          	li	a4,83
     a00:	00ee1463          	bne	t3,a4,a08 <_vfprintf_r+0x834>
     a04:	32c0106f          	j	1d30 <_vfprintf_r+0x1b5c>
     a08:	010af793          	andi	a5,s5,16
     a0c:	00f12c23          	sw	a5,24(sp)
     a10:	00078463          	beqz	a5,a18 <_vfprintf_r+0x844>
     a14:	31c0106f          	j	1d30 <_vfprintf_r+0x1b5c>
     a18:	fff00713          	li	a4,-1
     a1c:	00ea1463          	bne	s4,a4,a24 <_vfprintf_r+0x850>
     a20:	6940106f          	j	20b4 <_vfprintf_r+0x1ee0>
     a24:	000a0613          	mv	a2,s4
     a28:	00000593          	li	a1,0
     a2c:	000b8513          	mv	a0,s7
     a30:	01412a23          	sw	s4,20(sp)
     a34:	6d9060ef          	jal	ra,790c <memchr>
     a38:	00a12823          	sw	a0,16(sp)
     a3c:	01412303          	lw	t1,20(sp)
     a40:	00051463          	bnez	a0,a48 <_vfprintf_r+0x874>
     a44:	3000206f          	j	2d44 <_vfprintf_r+0x2b70>
     a48:	01012783          	lw	a5,16(sp)
     a4c:	41778cb3          	sub	s9,a5,s7
     a50:	07714603          	lbu	a2,119(sp)
     a54:	fffcc893          	not	a7,s9
     a58:	41f8d893          	srai	a7,a7,0x1f
     a5c:	01b12a23          	sw	s11,20(sp)
     a60:	02012423          	sw	zero,40(sp)
     a64:	02012223          	sw	zero,36(sp)
     a68:	00012823          	sw	zero,16(sp)
     a6c:	011cfc33          	and	s8,s9,a7
     a70:	00000313          	li	t1,0
     a74:	07300e13          	li	t3,115
     a78:	980608e3          	beqz	a2,408 <_vfprintf_r+0x234>
     a7c:	d8dff06f          	j	808 <_vfprintf_r+0x634>
     a80:	01412783          	lw	a5,20(sp)
     a84:	0007a903          	lw	s2,0(a5)
     a88:	00478793          	addi	a5,a5,4
     a8c:	380958e3          	bgez	s2,161c <_vfprintf_r+0x1448>
     a90:	41200933          	neg	s2,s2
     a94:	00f12a23          	sw	a5,20(sp)
     a98:	0004ce03          	lbu	t3,0(s1)
     a9c:	004aea93          	ori	s5,s5,4
     aa0:	8ddff06f          	j	37c <_vfprintf_r+0x1a8>
     aa4:	02b00793          	li	a5,43
     aa8:	0004ce03          	lbu	t3,0(s1)
     aac:	06f10ba3          	sb	a5,119(sp)
     ab0:	8cdff06f          	j	37c <_vfprintf_r+0x1a8>
     ab4:	0004ce03          	lbu	t3,0(s1)
     ab8:	080aea93          	ori	s5,s5,128
     abc:	8c1ff06f          	j	37c <_vfprintf_r+0x1a8>
     ac0:	0004ce03          	lbu	t3,0(s1)
     ac4:	02a00793          	li	a5,42
     ac8:	00148713          	addi	a4,s1,1
     acc:	00fe1463          	bne	t3,a5,ad4 <_vfprintf_r+0x900>
     ad0:	2c40206f          	j	2d94 <_vfprintf_r+0x2bc0>
     ad4:	fd0e0693          	addi	a3,t3,-48
     ad8:	00900793          	li	a5,9
     adc:	00070493          	mv	s1,a4
     ae0:	00000a13          	li	s4,0
     ae4:	00900713          	li	a4,9
     ae8:	88d7ece3          	bltu	a5,a3,380 <_vfprintf_r+0x1ac>
     aec:	0004ce03          	lbu	t3,0(s1)
     af0:	002a1793          	slli	a5,s4,0x2
     af4:	014787b3          	add	a5,a5,s4
     af8:	00179793          	slli	a5,a5,0x1
     afc:	00d78a33          	add	s4,a5,a3
     b00:	fd0e0693          	addi	a3,t3,-48
     b04:	00148493          	addi	s1,s1,1
     b08:	fed772e3          	bgeu	a4,a3,aec <_vfprintf_r+0x918>
     b0c:	875ff06f          	j	380 <_vfprintf_r+0x1ac>
     b10:	0004ce03          	lbu	t3,0(s1)
     b14:	001aea93          	ori	s5,s5,1
     b18:	865ff06f          	j	37c <_vfprintf_r+0x1a8>
     b1c:	07714783          	lbu	a5,119(sp)
     b20:	0004ce03          	lbu	t3,0(s1)
     b24:	84079ce3          	bnez	a5,37c <_vfprintf_r+0x1a8>
     b28:	02000793          	li	a5,32
     b2c:	06f10ba3          	sb	a5,119(sp)
     b30:	84dff06f          	j	37c <_vfprintf_r+0x1a8>
     b34:	000a0313          	mv	t1,s4
     b38:	010aea93          	ori	s5,s5,16
     b3c:	020af793          	andi	a5,s5,32
     b40:	26078ae3          	beqz	a5,15b4 <_vfprintf_r+0x13e0>
     b44:	01412783          	lw	a5,20(sp)
     b48:	00778a13          	addi	s4,a5,7
     b4c:	ff8a7a13          	andi	s4,s4,-8
     b50:	000a2c03          	lw	s8,0(s4)
     b54:	004a2c83          	lw	s9,4(s4)
     b58:	008a0793          	addi	a5,s4,8
     b5c:	00f12a23          	sw	a5,20(sp)
     b60:	bffafd93          	andi	s11,s5,-1025
     b64:	00000793          	li	a5,0
     b68:	00000713          	li	a4,0
     b6c:	06e10ba3          	sb	a4,119(sp)
     b70:	fff00713          	li	a4,-1
     b74:	2ce30c63          	beq	t1,a4,e4c <_vfprintf_r+0xc78>
     b78:	019c6733          	or	a4,s8,s9
     b7c:	f7fdfa93          	andi	s5,s11,-129
     b80:	2c071463          	bnez	a4,e48 <_vfprintf_r+0xc74>
     b84:	32031a63          	bnez	t1,eb8 <_vfprintf_r+0xce4>
     b88:	5c0796e3          	bnez	a5,1954 <_vfprintf_r+0x1780>
     b8c:	001dfc93          	andi	s9,s11,1
     b90:	15010b93          	addi	s7,sp,336
     b94:	300c9ae3          	bnez	s9,16a8 <_vfprintf_r+0x14d4>
     b98:	07714603          	lbu	a2,119(sp)
     b9c:	00030c13          	mv	s8,t1
     ba0:	01935463          	bge	t1,s9,ba8 <_vfprintf_r+0x9d4>
     ba4:	000c8c13          	mv	s8,s9
     ba8:	00012823          	sw	zero,16(sp)
     bac:	02012423          	sw	zero,40(sp)
     bb0:	02012223          	sw	zero,36(sp)
     bb4:	00012c23          	sw	zero,24(sp)
     bb8:	840608e3          	beqz	a2,408 <_vfprintf_r+0x234>
     bbc:	c4dff06f          	j	808 <_vfprintf_r+0x634>
     bc0:	0004ce03          	lbu	t3,0(s1)
     bc4:	06800793          	li	a5,104
     bc8:	4cfe00e3          	beq	t3,a5,1888 <_vfprintf_r+0x16b4>
     bcc:	040aea93          	ori	s5,s5,64
     bd0:	facff06f          	j	37c <_vfprintf_r+0x1a8>
     bd4:	000a0313          	mv	t1,s4
     bd8:	010aed93          	ori	s11,s5,16
     bdc:	020df793          	andi	a5,s11,32
     be0:	140786e3          	beqz	a5,152c <_vfprintf_r+0x1358>
     be4:	01412783          	lw	a5,20(sp)
     be8:	00778a13          	addi	s4,a5,7
     bec:	ff8a7a13          	andi	s4,s4,-8
     bf0:	008a0793          	addi	a5,s4,8
     bf4:	00f12a23          	sw	a5,20(sp)
     bf8:	000a2c03          	lw	s8,0(s4)
     bfc:	004a2c83          	lw	s9,4(s4)
     c00:	00100793          	li	a5,1
     c04:	f65ff06f          	j	b68 <_vfprintf_r+0x994>
     c08:	0004ce03          	lbu	t3,0(s1)
     c0c:	06c00793          	li	a5,108
     c10:	42fe04e3          	beq	t3,a5,1838 <_vfprintf_r+0x1664>
     c14:	010aea93          	ori	s5,s5,16
     c18:	f64ff06f          	j	37c <_vfprintf_r+0x1a8>
     c1c:	0004ce03          	lbu	t3,0(s1)
     c20:	008aea93          	ori	s5,s5,8
     c24:	f58ff06f          	j	37c <_vfprintf_r+0x1a8>
     c28:	000a0313          	mv	t1,s4
     c2c:	010aea93          	ori	s5,s5,16
     c30:	020af793          	andi	a5,s5,32
     c34:	120786e3          	beqz	a5,1560 <_vfprintf_r+0x138c>
     c38:	01412783          	lw	a5,20(sp)
     c3c:	00778a13          	addi	s4,a5,7
     c40:	ff8a7a13          	andi	s4,s4,-8
     c44:	004a2783          	lw	a5,4(s4)
     c48:	000a2c03          	lw	s8,0(s4)
     c4c:	008a0713          	addi	a4,s4,8
     c50:	00e12a23          	sw	a4,20(sp)
     c54:	00078c93          	mv	s9,a5
     c58:	1207cee3          	bltz	a5,1594 <_vfprintf_r+0x13c0>
     c5c:	fff00793          	li	a5,-1
     c60:	000a8d93          	mv	s11,s5
     c64:	02f30263          	beq	t1,a5,c88 <_vfprintf_r+0xab4>
     c68:	019c67b3          	or	a5,s8,s9
     c6c:	f7fafd93          	andi	s11,s5,-129
     c70:	00079c63          	bnez	a5,c88 <_vfprintf_r+0xab4>
     c74:	02031063          	bnez	t1,c94 <_vfprintf_r+0xac0>
     c78:	00000c93          	li	s9,0
     c7c:	000d8a93          	mv	s5,s11
     c80:	15010b93          	addi	s7,sp,336
     c84:	f15ff06f          	j	b98 <_vfprintf_r+0x9c4>
     c88:	520c9ce3          	bnez	s9,19c0 <_vfprintf_r+0x17ec>
     c8c:	00900793          	li	a5,9
     c90:	5387e8e3          	bltu	a5,s8,19c0 <_vfprintf_r+0x17ec>
     c94:	030c0c13          	addi	s8,s8,48
     c98:	158107a3          	sb	s8,335(sp)
     c9c:	000d8a93          	mv	s5,s11
     ca0:	00100c93          	li	s9,1
     ca4:	14f10b93          	addi	s7,sp,335
     ca8:	ef1ff06f          	j	b98 <_vfprintf_r+0x9c4>
     cac:	01412703          	lw	a4,20(sp)
     cb0:	ffff87b7          	lui	a5,0xffff8
     cb4:	8307c793          	xori	a5,a5,-2000
     cb8:	06f11c23          	sh	a5,120(sp)
     cbc:	00470793          	addi	a5,a4,4
     cc0:	00f12a23          	sw	a5,20(sp)
     cc4:	0001f797          	auipc	a5,0x1f
     cc8:	3e078793          	addi	a5,a5,992 # 200a4 <environ+0x18>
     ccc:	02f12e23          	sw	a5,60(sp)
     cd0:	00072c03          	lw	s8,0(a4)
     cd4:	000a0313          	mv	t1,s4
     cd8:	00000c93          	li	s9,0
     cdc:	002aed93          	ori	s11,s5,2
     ce0:	00200793          	li	a5,2
     ce4:	07800e13          	li	t3,120
     ce8:	e81ff06f          	j	b68 <_vfprintf_r+0x994>
     cec:	020af793          	andi	a5,s5,32
     cf0:	200782e3          	beqz	a5,16f4 <_vfprintf_r+0x1520>
     cf4:	01412783          	lw	a5,20(sp)
     cf8:	00c12683          	lw	a3,12(sp)
     cfc:	0007a783          	lw	a5,0(a5)
     d00:	41f6d713          	srai	a4,a3,0x1f
     d04:	00d7a023          	sw	a3,0(a5)
     d08:	00e7a223          	sw	a4,4(a5)
     d0c:	01412783          	lw	a5,20(sp)
     d10:	00048b93          	mv	s7,s1
     d14:	00478793          	addi	a5,a5,4
     d18:	00f12a23          	sw	a5,20(sp)
     d1c:	df8ff06f          	j	314 <_vfprintf_r+0x140>
     d20:	06500693          	li	a3,101
     d24:	b3c6d2e3          	bge	a3,t3,848 <_vfprintf_r+0x674>
     d28:	02c12603          	lw	a2,44(sp)
     d2c:	03012683          	lw	a3,48(sp)
     d30:	00060513          	mv	a0,a2
     d34:	00068593          	mv	a1,a3
     d38:	00000613          	li	a2,0
     d3c:	00000693          	li	a3,0
     d40:	1fd0d0ef          	jal	ra,e73c <__eqdf2>
     d44:	54051e63          	bnez	a0,12a0 <_vfprintf_r+0x10cc>
     d48:	0a412783          	lw	a5,164(sp)
     d4c:	0001f697          	auipc	a3,0x1f
     d50:	38868693          	addi	a3,a3,904 # 200d4 <environ+0x48>
     d54:	00d42023          	sw	a3,0(s0)
     d58:	001a0a13          	addi	s4,s4,1
     d5c:	00100693          	li	a3,1
     d60:	00178793          	addi	a5,a5,1
     d64:	00d42223          	sw	a3,4(s0)
     d68:	0b412423          	sw	s4,168(sp)
     d6c:	0af12223          	sw	a5,164(sp)
     d70:	00700693          	li	a3,7
     d74:	00840413          	addi	s0,s0,8
     d78:	78f6cae3          	blt	a3,a5,1d0c <_vfprintf_r+0x1b38>
     d7c:	07c12783          	lw	a5,124(sp)
     d80:	02012703          	lw	a4,32(sp)
     d84:	06e7dee3          	bge	a5,a4,1600 <_vfprintf_r+0x142c>
     d88:	03812783          	lw	a5,56(sp)
     d8c:	03412683          	lw	a3,52(sp)
     d90:	00840413          	addi	s0,s0,8
     d94:	fef42c23          	sw	a5,-8(s0)
     d98:	0a412783          	lw	a5,164(sp)
     d9c:	01468733          	add	a4,a3,s4
     da0:	fed42e23          	sw	a3,-4(s0)
     da4:	00178793          	addi	a5,a5,1
     da8:	0ae12423          	sw	a4,168(sp)
     dac:	0af12223          	sw	a5,164(sp)
     db0:	00700693          	li	a3,7
     db4:	2af6c8e3          	blt	a3,a5,1864 <_vfprintf_r+0x1690>
     db8:	02012783          	lw	a5,32(sp)
     dbc:	fff78c93          	addi	s9,a5,-1
     dc0:	f1905863          	blez	s9,4d0 <_vfprintf_r+0x2fc>
     dc4:	01000693          	li	a3,16
     dc8:	0a412783          	lw	a5,164(sp)
     dcc:	0001fa17          	auipc	s4,0x1f
     dd0:	510a0a13          	addi	s4,s4,1296 # 202dc <zeroes.0>
     dd4:	0196c463          	blt	a3,s9,ddc <_vfprintf_r+0xc08>
     dd8:	0a00106f          	j	1e78 <_vfprintf_r+0x1ca4>
     ddc:	000a0693          	mv	a3,s4
     de0:	01000d93          	li	s11,16
     de4:	00090a13          	mv	s4,s2
     de8:	00700b93          	li	s7,7
     dec:	00048913          	mv	s2,s1
     df0:	00068493          	mv	s1,a3
     df4:	0100006f          	j	e04 <_vfprintf_r+0xc30>
     df8:	ff0c8c93          	addi	s9,s9,-16
     dfc:	019dc463          	blt	s11,s9,e04 <_vfprintf_r+0xc30>
     e00:	0680106f          	j	1e68 <_vfprintf_r+0x1c94>
     e04:	01070713          	addi	a4,a4,16
     e08:	00178793          	addi	a5,a5,1
     e0c:	00942023          	sw	s1,0(s0)
     e10:	01b42223          	sw	s11,4(s0)
     e14:	0ae12423          	sw	a4,168(sp)
     e18:	0af12223          	sw	a5,164(sp)
     e1c:	00840413          	addi	s0,s0,8
     e20:	fcfbdce3          	bge	s7,a5,df8 <_vfprintf_r+0xc24>
     e24:	00812583          	lw	a1,8(sp)
     e28:	0a010613          	addi	a2,sp,160
     e2c:	00098513          	mv	a0,s3
     e30:	43d080ef          	jal	ra,9a6c <__sprint_r>
     e34:	840518e3          	bnez	a0,684 <_vfprintf_r+0x4b0>
     e38:	0a812703          	lw	a4,168(sp)
     e3c:	0a412783          	lw	a5,164(sp)
     e40:	0ac10413          	addi	s0,sp,172
     e44:	fb5ff06f          	j	df8 <_vfprintf_r+0xc24>
     e48:	000a8d93          	mv	s11,s5
     e4c:	00100713          	li	a4,1
     e50:	e2e78ce3          	beq	a5,a4,c88 <_vfprintf_r+0xab4>
     e54:	00200713          	li	a4,2
     e58:	06e78c63          	beq	a5,a4,ed0 <_vfprintf_r+0xcfc>
     e5c:	15010b93          	addi	s7,sp,336
     e60:	01dc9793          	slli	a5,s9,0x1d
     e64:	007c7713          	andi	a4,s8,7
     e68:	003c5c13          	srli	s8,s8,0x3
     e6c:	03070713          	addi	a4,a4,48
     e70:	0187ec33          	or	s8,a5,s8
     e74:	003cdc93          	srli	s9,s9,0x3
     e78:	feeb8fa3          	sb	a4,-1(s7)
     e7c:	019c67b3          	or	a5,s8,s9
     e80:	000b8613          	mv	a2,s7
     e84:	fffb8b93          	addi	s7,s7,-1
     e88:	fc079ce3          	bnez	a5,e60 <_vfprintf_r+0xc8c>
     e8c:	001df693          	andi	a3,s11,1
     e90:	06068a63          	beqz	a3,f04 <_vfprintf_r+0xd30>
     e94:	03000693          	li	a3,48
     e98:	06d70663          	beq	a4,a3,f04 <_vfprintf_r+0xd30>
     e9c:	ffe60613          	addi	a2,a2,-2
     ea0:	15010793          	addi	a5,sp,336
     ea4:	fedb8fa3          	sb	a3,-1(s7)
     ea8:	40c78cb3          	sub	s9,a5,a2
     eac:	000d8a93          	mv	s5,s11
     eb0:	00060b93          	mv	s7,a2
     eb4:	ce5ff06f          	j	b98 <_vfprintf_r+0x9c4>
     eb8:	00100713          	li	a4,1
     ebc:	00e79463          	bne	a5,a4,ec4 <_vfprintf_r+0xcf0>
     ec0:	4090106f          	j	2ac8 <_vfprintf_r+0x28f4>
     ec4:	00200713          	li	a4,2
     ec8:	000a8d93          	mv	s11,s5
     ecc:	f8e798e3          	bne	a5,a4,e5c <_vfprintf_r+0xc88>
     ed0:	03c12683          	lw	a3,60(sp)
     ed4:	15010b93          	addi	s7,sp,336
     ed8:	00fc7793          	andi	a5,s8,15
     edc:	00f687b3          	add	a5,a3,a5
     ee0:	0007c703          	lbu	a4,0(a5)
     ee4:	004c5c13          	srli	s8,s8,0x4
     ee8:	01cc9793          	slli	a5,s9,0x1c
     eec:	0187ec33          	or	s8,a5,s8
     ef0:	004cdc93          	srli	s9,s9,0x4
     ef4:	feeb8fa3          	sb	a4,-1(s7)
     ef8:	019c67b3          	or	a5,s8,s9
     efc:	fffb8b93          	addi	s7,s7,-1
     f00:	fc079ce3          	bnez	a5,ed8 <_vfprintf_r+0xd04>
     f04:	15010793          	addi	a5,sp,336
     f08:	41778cb3          	sub	s9,a5,s7
     f0c:	000d8a93          	mv	s5,s11
     f10:	c89ff06f          	j	b98 <_vfprintf_r+0x9c4>
     f14:	41890db3          	sub	s11,s2,s8
     f18:	d9b05063          	blez	s11,498 <_vfprintf_r+0x2c4>
     f1c:	01000593          	li	a1,16
     f20:	000a0713          	mv	a4,s4
     f24:	0a412603          	lw	a2,164(sp)
     f28:	0001fa17          	auipc	s4,0x1f
     f2c:	3b4a0a13          	addi	s4,s4,948 # 202dc <zeroes.0>
     f30:	0bb5d463          	bge	a1,s11,fd8 <_vfprintf_r+0xe04>
     f34:	04912823          	sw	s1,80(sp)
     f38:	00040793          	mv	a5,s0
     f3c:	000a0493          	mv	s1,s4
     f40:	000d8413          	mv	s0,s11
     f44:	00090a13          	mv	s4,s2
     f48:	000b8d93          	mv	s11,s7
     f4c:	01000f93          	li	t6,16
     f50:	00700293          	li	t0,7
     f54:	00030b93          	mv	s7,t1
     f58:	000e0913          	mv	s2,t3
     f5c:	00c0006f          	j	f68 <_vfprintf_r+0xd94>
     f60:	ff040413          	addi	s0,s0,-16
     f64:	048fda63          	bge	t6,s0,fb8 <_vfprintf_r+0xde4>
     f68:	01070713          	addi	a4,a4,16
     f6c:	00160613          	addi	a2,a2,1
     f70:	0097a023          	sw	s1,0(a5)
     f74:	01f7a223          	sw	t6,4(a5)
     f78:	0ae12423          	sw	a4,168(sp)
     f7c:	0ac12223          	sw	a2,164(sp)
     f80:	00878793          	addi	a5,a5,8
     f84:	fcc2dee3          	bge	t0,a2,f60 <_vfprintf_r+0xd8c>
     f88:	00812583          	lw	a1,8(sp)
     f8c:	0a010613          	addi	a2,sp,160
     f90:	00098513          	mv	a0,s3
     f94:	2d9080ef          	jal	ra,9a6c <__sprint_r>
     f98:	ee051663          	bnez	a0,684 <_vfprintf_r+0x4b0>
     f9c:	01000f93          	li	t6,16
     fa0:	ff040413          	addi	s0,s0,-16
     fa4:	0a812703          	lw	a4,168(sp)
     fa8:	0a412603          	lw	a2,164(sp)
     fac:	0ac10793          	addi	a5,sp,172
     fb0:	00700293          	li	t0,7
     fb4:	fa8fcae3          	blt	t6,s0,f68 <_vfprintf_r+0xd94>
     fb8:	00090e13          	mv	t3,s2
     fbc:	000a0913          	mv	s2,s4
     fc0:	00048a13          	mv	s4,s1
     fc4:	05012483          	lw	s1,80(sp)
     fc8:	000b8313          	mv	t1,s7
     fcc:	000d8b93          	mv	s7,s11
     fd0:	00040d93          	mv	s11,s0
     fd4:	00078413          	mv	s0,a5
     fd8:	00ed8733          	add	a4,s11,a4
     fdc:	00160613          	addi	a2,a2,1
     fe0:	01442023          	sw	s4,0(s0)
     fe4:	01b42223          	sw	s11,4(s0)
     fe8:	0ae12423          	sw	a4,168(sp)
     fec:	0ac12223          	sw	a2,164(sp)
     ff0:	00700593          	li	a1,7
     ff4:	7ac5c263          	blt	a1,a2,1798 <_vfprintf_r+0x15c4>
     ff8:	41930db3          	sub	s11,t1,s9
     ffc:	00840413          	addi	s0,s0,8
    1000:	00070a13          	mv	s4,a4
    1004:	c9b05e63          	blez	s11,4a0 <_vfprintf_r+0x2cc>
    1008:	01000593          	li	a1,16
    100c:	000a0713          	mv	a4,s4
    1010:	0a412603          	lw	a2,164(sp)
    1014:	0001fa17          	auipc	s4,0x1f
    1018:	2c8a0a13          	addi	s4,s4,712 # 202dc <zeroes.0>
    101c:	09b5dc63          	bge	a1,s11,10b4 <_vfprintf_r+0xee0>
    1020:	00040793          	mv	a5,s0
    1024:	01000f13          	li	t5,16
    1028:	000d8413          	mv	s0,s11
    102c:	00700f93          	li	t6,7
    1030:	000a0d93          	mv	s11,s4
    1034:	00090a13          	mv	s4,s2
    1038:	000e0913          	mv	s2,t3
    103c:	00c0006f          	j	1048 <_vfprintf_r+0xe74>
    1040:	ff040413          	addi	s0,s0,-16
    1044:	048f5e63          	bge	t5,s0,10a0 <_vfprintf_r+0xecc>
    1048:	01070713          	addi	a4,a4,16
    104c:	00160613          	addi	a2,a2,1
    1050:	0001f697          	auipc	a3,0x1f
    1054:	28c68693          	addi	a3,a3,652 # 202dc <zeroes.0>
    1058:	00d7a023          	sw	a3,0(a5)
    105c:	01e7a223          	sw	t5,4(a5)
    1060:	0ae12423          	sw	a4,168(sp)
    1064:	0ac12223          	sw	a2,164(sp)
    1068:	00878793          	addi	a5,a5,8
    106c:	fccfdae3          	bge	t6,a2,1040 <_vfprintf_r+0xe6c>
    1070:	00812583          	lw	a1,8(sp)
    1074:	0a010613          	addi	a2,sp,160
    1078:	00098513          	mv	a0,s3
    107c:	1f1080ef          	jal	ra,9a6c <__sprint_r>
    1080:	e0051263          	bnez	a0,684 <_vfprintf_r+0x4b0>
    1084:	01000f13          	li	t5,16
    1088:	ff040413          	addi	s0,s0,-16
    108c:	0a812703          	lw	a4,168(sp)
    1090:	0a412603          	lw	a2,164(sp)
    1094:	0ac10793          	addi	a5,sp,172
    1098:	00700f93          	li	t6,7
    109c:	fa8f46e3          	blt	t5,s0,1048 <_vfprintf_r+0xe74>
    10a0:	00090e13          	mv	t3,s2
    10a4:	000a0913          	mv	s2,s4
    10a8:	000d8a13          	mv	s4,s11
    10ac:	00040d93          	mv	s11,s0
    10b0:	00078413          	mv	s0,a5
    10b4:	00ed8733          	add	a4,s11,a4
    10b8:	00160613          	addi	a2,a2,1
    10bc:	01442023          	sw	s4,0(s0)
    10c0:	01b42223          	sw	s11,4(s0)
    10c4:	0ae12423          	sw	a4,168(sp)
    10c8:	0ac12223          	sw	a2,164(sp)
    10cc:	00700593          	li	a1,7
    10d0:	42c5ca63          	blt	a1,a2,1504 <_vfprintf_r+0x1330>
    10d4:	00840413          	addi	s0,s0,8
    10d8:	00070a13          	mv	s4,a4
    10dc:	bc4ff06f          	j	4a0 <_vfprintf_r+0x2cc>
    10e0:	01000513          	li	a0,16
    10e4:	0a812583          	lw	a1,168(sp)
    10e8:	0a412603          	lw	a2,164(sp)
    10ec:	0001fa17          	auipc	s4,0x1f
    10f0:	200a0a13          	addi	s4,s4,512 # 202ec <blanks.1>
    10f4:	0ae55063          	bge	a0,a4,1194 <_vfprintf_r+0xfc0>
    10f8:	04912a23          	sw	s1,84(sp)
    10fc:	00040793          	mv	a5,s0
    1100:	000a0493          	mv	s1,s4
    1104:	01000f13          	li	t5,16
    1108:	00700393          	li	t2,7
    110c:	04512823          	sw	t0,80(sp)
    1110:	05c12c23          	sw	t3,88(sp)
    1114:	00070413          	mv	s0,a4
    1118:	00030a13          	mv	s4,t1
    111c:	00c0006f          	j	1128 <_vfprintf_r+0xf54>
    1120:	ff040413          	addi	s0,s0,-16
    1124:	048f5a63          	bge	t5,s0,1178 <_vfprintf_r+0xfa4>
    1128:	01058593          	addi	a1,a1,16
    112c:	00160613          	addi	a2,a2,1
    1130:	0097a023          	sw	s1,0(a5)
    1134:	01e7a223          	sw	t5,4(a5)
    1138:	0ab12423          	sw	a1,168(sp)
    113c:	0ac12223          	sw	a2,164(sp)
    1140:	00878793          	addi	a5,a5,8
    1144:	fcc3dee3          	bge	t2,a2,1120 <_vfprintf_r+0xf4c>
    1148:	00812583          	lw	a1,8(sp)
    114c:	0a010613          	addi	a2,sp,160
    1150:	00098513          	mv	a0,s3
    1154:	119080ef          	jal	ra,9a6c <__sprint_r>
    1158:	d2051663          	bnez	a0,684 <_vfprintf_r+0x4b0>
    115c:	01000f13          	li	t5,16
    1160:	ff040413          	addi	s0,s0,-16
    1164:	0a812583          	lw	a1,168(sp)
    1168:	0a412603          	lw	a2,164(sp)
    116c:	0ac10793          	addi	a5,sp,172
    1170:	00700393          	li	t2,7
    1174:	fa8f4ae3          	blt	t5,s0,1128 <_vfprintf_r+0xf54>
    1178:	000a0313          	mv	t1,s4
    117c:	05012283          	lw	t0,80(sp)
    1180:	00048a13          	mv	s4,s1
    1184:	05812e03          	lw	t3,88(sp)
    1188:	05412483          	lw	s1,84(sp)
    118c:	00040713          	mv	a4,s0
    1190:	00078413          	mv	s0,a5
    1194:	00b705b3          	add	a1,a4,a1
    1198:	00160613          	addi	a2,a2,1
    119c:	00e42223          	sw	a4,4(s0)
    11a0:	01442023          	sw	s4,0(s0)
    11a4:	0ab12423          	sw	a1,168(sp)
    11a8:	0ac12223          	sw	a2,164(sp)
    11ac:	00700713          	li	a4,7
    11b0:	10c74ce3          	blt	a4,a2,1ac8 <_vfprintf_r+0x18f4>
    11b4:	07714603          	lbu	a2,119(sp)
    11b8:	00840413          	addi	s0,s0,8
    11bc:	a68ff06f          	j	424 <_vfprintf_r+0x250>
    11c0:	00812583          	lw	a1,8(sp)
    11c4:	0a010613          	addi	a2,sp,160
    11c8:	00098513          	mv	a0,s3
    11cc:	04612a23          	sw	t1,84(sp)
    11d0:	05c12823          	sw	t3,80(sp)
    11d4:	099080ef          	jal	ra,9a6c <__sprint_r>
    11d8:	ca051663          	bnez	a0,684 <_vfprintf_r+0x4b0>
    11dc:	0a812a03          	lw	s4,168(sp)
    11e0:	05412303          	lw	t1,84(sp)
    11e4:	05012e03          	lw	t3,80(sp)
    11e8:	0ac10413          	addi	s0,sp,172
    11ec:	aa4ff06f          	j	490 <_vfprintf_r+0x2bc>
    11f0:	01000693          	li	a3,16
    11f4:	0a412783          	lw	a5,164(sp)
    11f8:	0001fa17          	auipc	s4,0x1f
    11fc:	0f4a0a13          	addi	s4,s4,244 # 202ec <blanks.1>
    1200:	0796d263          	bge	a3,s9,1264 <_vfprintf_r+0x1090>
    1204:	00812b83          	lw	s7,8(sp)
    1208:	01000d93          	li	s11,16
    120c:	00700a93          	li	s5,7
    1210:	00c0006f          	j	121c <_vfprintf_r+0x1048>
    1214:	ff0c8c93          	addi	s9,s9,-16
    1218:	059dd663          	bge	s11,s9,1264 <_vfprintf_r+0x1090>
    121c:	01070713          	addi	a4,a4,16
    1220:	00178793          	addi	a5,a5,1
    1224:	01442023          	sw	s4,0(s0)
    1228:	01b42223          	sw	s11,4(s0)
    122c:	0ae12423          	sw	a4,168(sp)
    1230:	0af12223          	sw	a5,164(sp)
    1234:	00840413          	addi	s0,s0,8
    1238:	fcfadee3          	bge	s5,a5,1214 <_vfprintf_r+0x1040>
    123c:	0a010613          	addi	a2,sp,160
    1240:	000b8593          	mv	a1,s7
    1244:	00098513          	mv	a0,s3
    1248:	025080ef          	jal	ra,9a6c <__sprint_r>
    124c:	c2051c63          	bnez	a0,684 <_vfprintf_r+0x4b0>
    1250:	ff0c8c93          	addi	s9,s9,-16
    1254:	0a812703          	lw	a4,168(sp)
    1258:	0a412783          	lw	a5,164(sp)
    125c:	0ac10413          	addi	s0,sp,172
    1260:	fb9dcee3          	blt	s11,s9,121c <_vfprintf_r+0x1048>
    1264:	01970733          	add	a4,a4,s9
    1268:	00178793          	addi	a5,a5,1
    126c:	01442023          	sw	s4,0(s0)
    1270:	01942223          	sw	s9,4(s0)
    1274:	0ae12423          	sw	a4,168(sp)
    1278:	0af12223          	sw	a5,164(sp)
    127c:	00700693          	li	a3,7
    1280:	a6f6d063          	bge	a3,a5,4e0 <_vfprintf_r+0x30c>
    1284:	00812583          	lw	a1,8(sp)
    1288:	0a010613          	addi	a2,sp,160
    128c:	00098513          	mv	a0,s3
    1290:	7dc080ef          	jal	ra,9a6c <__sprint_r>
    1294:	be051863          	bnez	a0,684 <_vfprintf_r+0x4b0>
    1298:	0a812703          	lw	a4,168(sp)
    129c:	a44ff06f          	j	4e0 <_vfprintf_r+0x30c>
    12a0:	07c12583          	lw	a1,124(sp)
    12a4:	38b05263          	blez	a1,1628 <_vfprintf_r+0x1454>
    12a8:	02012783          	lw	a5,32(sp)
    12ac:	01812703          	lw	a4,24(sp)
    12b0:	00fb8333          	add	t1,s7,a5
    12b4:	00070c93          	mv	s9,a4
    12b8:	00e7d463          	bge	a5,a4,12c0 <_vfprintf_r+0x10ec>
    12bc:	00078c93          	mv	s9,a5
    12c0:	03905863          	blez	s9,12f0 <_vfprintf_r+0x111c>
    12c4:	0a412603          	lw	a2,164(sp)
    12c8:	019a0a33          	add	s4,s4,s9
    12cc:	01742023          	sw	s7,0(s0)
    12d0:	00160613          	addi	a2,a2,1
    12d4:	01942223          	sw	s9,4(s0)
    12d8:	0b412423          	sw	s4,168(sp)
    12dc:	0ac12223          	sw	a2,164(sp)
    12e0:	00700593          	li	a1,7
    12e4:	00840413          	addi	s0,s0,8
    12e8:	00c5d463          	bge	a1,a2,12f0 <_vfprintf_r+0x111c>
    12ec:	60c0106f          	j	28f8 <_vfprintf_r+0x2724>
    12f0:	fffcc613          	not	a2,s9
    12f4:	01812783          	lw	a5,24(sp)
    12f8:	41f65613          	srai	a2,a2,0x1f
    12fc:	00ccf6b3          	and	a3,s9,a2
    1300:	40d78cb3          	sub	s9,a5,a3
    1304:	3b904ae3          	bgtz	s9,1eb8 <_vfprintf_r+0x1ce4>
    1308:	01812783          	lw	a5,24(sp)
    130c:	400af693          	andi	a3,s5,1024
    1310:	00fb8bb3          	add	s7,s7,a5
    1314:	00068463          	beqz	a3,131c <_vfprintf_r+0x1148>
    1318:	33c0106f          	j	2654 <_vfprintf_r+0x2480>
    131c:	07c12683          	lw	a3,124(sp)
    1320:	02012783          	lw	a5,32(sp)
    1324:	00f6c663          	blt	a3,a5,1330 <_vfprintf_r+0x115c>
    1328:	001af613          	andi	a2,s5,1
    132c:	4e060ce3          	beqz	a2,2024 <_vfprintf_r+0x1e50>
    1330:	03812603          	lw	a2,56(sp)
    1334:	03412783          	lw	a5,52(sp)
    1338:	00700593          	li	a1,7
    133c:	00c42023          	sw	a2,0(s0)
    1340:	0a412603          	lw	a2,164(sp)
    1344:	01478733          	add	a4,a5,s4
    1348:	00f42223          	sw	a5,4(s0)
    134c:	00160613          	addi	a2,a2,1
    1350:	0ae12423          	sw	a4,168(sp)
    1354:	0ac12223          	sw	a2,164(sp)
    1358:	00840413          	addi	s0,s0,8
    135c:	00c5d463          	bge	a1,a2,1364 <_vfprintf_r+0x1190>
    1360:	5d00106f          	j	2930 <_vfprintf_r+0x275c>
    1364:	02012783          	lw	a5,32(sp)
    1368:	41730cb3          	sub	s9,t1,s7
    136c:	40d786b3          	sub	a3,a5,a3
    1370:	4796cee3          	blt	a3,s9,1fec <_vfprintf_r+0x1e18>
    1374:	03905863          	blez	s9,13a4 <_vfprintf_r+0x11d0>
    1378:	0a412783          	lw	a5,164(sp)
    137c:	01970733          	add	a4,a4,s9
    1380:	01742023          	sw	s7,0(s0)
    1384:	00178793          	addi	a5,a5,1
    1388:	01942223          	sw	s9,4(s0)
    138c:	0ae12423          	sw	a4,168(sp)
    1390:	0af12223          	sw	a5,164(sp)
    1394:	00700613          	li	a2,7
    1398:	00840413          	addi	s0,s0,8
    139c:	00f65463          	bge	a2,a5,13a4 <_vfprintf_r+0x11d0>
    13a0:	6000106f          	j	29a0 <_vfprintf_r+0x27cc>
    13a4:	fffcc793          	not	a5,s9
    13a8:	41f7d793          	srai	a5,a5,0x1f
    13ac:	00fcfcb3          	and	s9,s9,a5
    13b0:	41968cb3          	sub	s9,a3,s9
    13b4:	91905e63          	blez	s9,4d0 <_vfprintf_r+0x2fc>
    13b8:	01000693          	li	a3,16
    13bc:	0a412783          	lw	a5,164(sp)
    13c0:	0001fa17          	auipc	s4,0x1f
    13c4:	f1ca0a13          	addi	s4,s4,-228 # 202dc <zeroes.0>
    13c8:	2b96d8e3          	bge	a3,s9,1e78 <_vfprintf_r+0x1ca4>
    13cc:	000a0693          	mv	a3,s4
    13d0:	01000d93          	li	s11,16
    13d4:	00090a13          	mv	s4,s2
    13d8:	00700b93          	li	s7,7
    13dc:	00048913          	mv	s2,s1
    13e0:	00068493          	mv	s1,a3
    13e4:	00c0006f          	j	13f0 <_vfprintf_r+0x121c>
    13e8:	ff0c8c93          	addi	s9,s9,-16
    13ec:	279ddee3          	bge	s11,s9,1e68 <_vfprintf_r+0x1c94>
    13f0:	01070713          	addi	a4,a4,16
    13f4:	00178793          	addi	a5,a5,1
    13f8:	00942023          	sw	s1,0(s0)
    13fc:	01b42223          	sw	s11,4(s0)
    1400:	0ae12423          	sw	a4,168(sp)
    1404:	0af12223          	sw	a5,164(sp)
    1408:	00840413          	addi	s0,s0,8
    140c:	fcfbdee3          	bge	s7,a5,13e8 <_vfprintf_r+0x1214>
    1410:	00812583          	lw	a1,8(sp)
    1414:	0a010613          	addi	a2,sp,160
    1418:	00098513          	mv	a0,s3
    141c:	650080ef          	jal	ra,9a6c <__sprint_r>
    1420:	a6051263          	bnez	a0,684 <_vfprintf_r+0x4b0>
    1424:	0a812703          	lw	a4,168(sp)
    1428:	0a412783          	lw	a5,164(sp)
    142c:	0ac10413          	addi	s0,sp,172
    1430:	fb9ff06f          	j	13e8 <_vfprintf_r+0x1214>
    1434:	001af613          	andi	a2,s5,1
    1438:	c2061263          	bnez	a2,85c <_vfprintf_r+0x688>
    143c:	0a412c83          	lw	s9,164(sp)
    1440:	01742023          	sw	s7,0(s0)
    1444:	00d42223          	sw	a3,4(s0)
    1448:	001c8c93          	addi	s9,s9,1
    144c:	0ae12423          	sw	a4,168(sp)
    1450:	0b912223          	sw	s9,164(sp)
    1454:	00700793          	li	a5,7
    1458:	cb97da63          	bge	a5,s9,90c <_vfprintf_r+0x738>
    145c:	00812583          	lw	a1,8(sp)
    1460:	0a010613          	addi	a2,sp,160
    1464:	00098513          	mv	a0,s3
    1468:	604080ef          	jal	ra,9a6c <__sprint_r>
    146c:	a0051c63          	bnez	a0,684 <_vfprintf_r+0x4b0>
    1470:	0a812703          	lw	a4,168(sp)
    1474:	0a412c83          	lw	s9,164(sp)
    1478:	0ac10d93          	addi	s11,sp,172
    147c:	c90ff06f          	j	90c <_vfprintf_r+0x738>
    1480:	02012683          	lw	a3,32(sp)
    1484:	00100793          	li	a5,1
    1488:	c8d7d263          	bge	a5,a3,90c <_vfprintf_r+0x738>
    148c:	01100793          	li	a5,17
    1490:	0001fa17          	auipc	s4,0x1f
    1494:	e4ca0a13          	addi	s4,s4,-436 # 202dc <zeroes.0>
    1498:	20d7d8e3          	bge	a5,a3,1ea8 <_vfprintf_r+0x1cd4>
    149c:	000a0693          	mv	a3,s4
    14a0:	01000793          	li	a5,16
    14a4:	00040a13          	mv	s4,s0
    14a8:	00700b93          	li	s7,7
    14ac:	00068413          	mv	s0,a3
    14b0:	00c0006f          	j	14bc <_vfprintf_r+0x12e8>
    14b4:	ff0a0a13          	addi	s4,s4,-16
    14b8:	1f47d2e3          	bge	a5,s4,1e9c <_vfprintf_r+0x1cc8>
    14bc:	01070713          	addi	a4,a4,16
    14c0:	001c8c93          	addi	s9,s9,1
    14c4:	008da023          	sw	s0,0(s11)
    14c8:	00fda223          	sw	a5,4(s11)
    14cc:	0ae12423          	sw	a4,168(sp)
    14d0:	0b912223          	sw	s9,164(sp)
    14d4:	008d8d93          	addi	s11,s11,8
    14d8:	fd9bdee3          	bge	s7,s9,14b4 <_vfprintf_r+0x12e0>
    14dc:	00812583          	lw	a1,8(sp)
    14e0:	0a010613          	addi	a2,sp,160
    14e4:	00098513          	mv	a0,s3
    14e8:	584080ef          	jal	ra,9a6c <__sprint_r>
    14ec:	98051c63          	bnez	a0,684 <_vfprintf_r+0x4b0>
    14f0:	0a812703          	lw	a4,168(sp)
    14f4:	0a412c83          	lw	s9,164(sp)
    14f8:	0ac10d93          	addi	s11,sp,172
    14fc:	01000793          	li	a5,16
    1500:	fb5ff06f          	j	14b4 <_vfprintf_r+0x12e0>
    1504:	00812583          	lw	a1,8(sp)
    1508:	0a010613          	addi	a2,sp,160
    150c:	00098513          	mv	a0,s3
    1510:	05c12823          	sw	t3,80(sp)
    1514:	558080ef          	jal	ra,9a6c <__sprint_r>
    1518:	96051663          	bnez	a0,684 <_vfprintf_r+0x4b0>
    151c:	0a812a03          	lw	s4,168(sp)
    1520:	05012e03          	lw	t3,80(sp)
    1524:	0ac10413          	addi	s0,sp,172
    1528:	f79fe06f          	j	4a0 <_vfprintf_r+0x2cc>
    152c:	01412703          	lw	a4,20(sp)
    1530:	010df793          	andi	a5,s11,16
    1534:	00072c03          	lw	s8,0(a4)
    1538:	00470713          	addi	a4,a4,4
    153c:	00e12a23          	sw	a4,20(sp)
    1540:	18079263          	bnez	a5,16c4 <_vfprintf_r+0x14f0>
    1544:	040df793          	andi	a5,s11,64
    1548:	16078863          	beqz	a5,16b8 <_vfprintf_r+0x14e4>
    154c:	010c1c13          	slli	s8,s8,0x10
    1550:	010c5c13          	srli	s8,s8,0x10
    1554:	00000c93          	li	s9,0
    1558:	00100793          	li	a5,1
    155c:	e0cff06f          	j	b68 <_vfprintf_r+0x994>
    1560:	01412703          	lw	a4,20(sp)
    1564:	010af793          	andi	a5,s5,16
    1568:	00072c03          	lw	s8,0(a4)
    156c:	00470713          	addi	a4,a4,4
    1570:	00e12a23          	sw	a4,20(sp)
    1574:	16079a63          	bnez	a5,16e8 <_vfprintf_r+0x1514>
    1578:	040af793          	andi	a5,s5,64
    157c:	16078263          	beqz	a5,16e0 <_vfprintf_r+0x150c>
    1580:	010c1c13          	slli	s8,s8,0x10
    1584:	410c5c13          	srai	s8,s8,0x10
    1588:	41fc5c93          	srai	s9,s8,0x1f
    158c:	000c8793          	mv	a5,s9
    1590:	ec07d663          	bgez	a5,c5c <_vfprintf_r+0xa88>
    1594:	018037b3          	snez	a5,s8
    1598:	41900cb3          	neg	s9,s9
    159c:	40fc8cb3          	sub	s9,s9,a5
    15a0:	41800c33          	neg	s8,s8
    15a4:	000a8d93          	mv	s11,s5
    15a8:	02d00713          	li	a4,45
    15ac:	00100793          	li	a5,1
    15b0:	dbcff06f          	j	b6c <_vfprintf_r+0x998>
    15b4:	01412703          	lw	a4,20(sp)
    15b8:	010af793          	andi	a5,s5,16
    15bc:	00072c03          	lw	s8,0(a4)
    15c0:	00470713          	addi	a4,a4,4
    15c4:	00e12a23          	sw	a4,20(sp)
    15c8:	10079863          	bnez	a5,16d8 <_vfprintf_r+0x1504>
    15cc:	040af793          	andi	a5,s5,64
    15d0:	10078063          	beqz	a5,16d0 <_vfprintf_r+0x14fc>
    15d4:	010c1c13          	slli	s8,s8,0x10
    15d8:	010c5c13          	srli	s8,s8,0x10
    15dc:	00000c93          	li	s9,0
    15e0:	d80ff06f          	j	b60 <_vfprintf_r+0x98c>
    15e4:	00812403          	lw	s0,8(sp)
    15e8:	00f12623          	sw	a5,12(sp)
    15ec:	05842503          	lw	a0,88(s0)
    15f0:	00c050ef          	jal	ra,65fc <__retarget_lock_acquire_recursive>
    15f4:	00c41703          	lh	a4,12(s0)
    15f8:	00c12783          	lw	a5,12(sp)
    15fc:	c7dfe06f          	j	278 <_vfprintf_r+0xa4>
    1600:	001af793          	andi	a5,s5,1
    1604:	000a0713          	mv	a4,s4
    1608:	00079463          	bnez	a5,1610 <_vfprintf_r+0x143c>
    160c:	ec5fe06f          	j	4d0 <_vfprintf_r+0x2fc>
    1610:	f78ff06f          	j	d88 <_vfprintf_r+0xbb4>
    1614:	000a0313          	mv	t1,s4
    1618:	e18ff06f          	j	c30 <_vfprintf_r+0xa5c>
    161c:	0004ce03          	lbu	t3,0(s1)
    1620:	00f12a23          	sw	a5,20(sp)
    1624:	d59fe06f          	j	37c <_vfprintf_r+0x1a8>
    1628:	0a412683          	lw	a3,164(sp)
    162c:	0001f617          	auipc	a2,0x1f
    1630:	aa860613          	addi	a2,a2,-1368 # 200d4 <environ+0x48>
    1634:	00c42023          	sw	a2,0(s0)
    1638:	001a0713          	addi	a4,s4,1
    163c:	00100613          	li	a2,1
    1640:	00168693          	addi	a3,a3,1
    1644:	00c42223          	sw	a2,4(s0)
    1648:	0ae12423          	sw	a4,168(sp)
    164c:	0ad12223          	sw	a3,164(sp)
    1650:	00700613          	li	a2,7
    1654:	00840413          	addi	s0,s0,8
    1658:	18d64ee3          	blt	a2,a3,1ff4 <_vfprintf_r+0x1e20>
    165c:	0e0598e3          	bnez	a1,1f4c <_vfprintf_r+0x1d78>
    1660:	02012783          	lw	a5,32(sp)
    1664:	001af693          	andi	a3,s5,1
    1668:	00f6e6b3          	or	a3,a3,a5
    166c:	00069463          	bnez	a3,1674 <_vfprintf_r+0x14a0>
    1670:	e61fe06f          	j	4d0 <_vfprintf_r+0x2fc>
    1674:	03812683          	lw	a3,56(sp)
    1678:	03412783          	lw	a5,52(sp)
    167c:	00700613          	li	a2,7
    1680:	00d42023          	sw	a3,0(s0)
    1684:	0a412683          	lw	a3,164(sp)
    1688:	00e78733          	add	a4,a5,a4
    168c:	00f42223          	sw	a5,4(s0)
    1690:	00168693          	addi	a3,a3,1
    1694:	0ae12423          	sw	a4,168(sp)
    1698:	0ad12223          	sw	a3,164(sp)
    169c:	22d644e3          	blt	a2,a3,20c4 <_vfprintf_r+0x1ef0>
    16a0:	00840413          	addi	s0,s0,8
    16a4:	0dd0006f          	j	1f80 <_vfprintf_r+0x1dac>
    16a8:	03000793          	li	a5,48
    16ac:	14f107a3          	sb	a5,335(sp)
    16b0:	14f10b93          	addi	s7,sp,335
    16b4:	ce4ff06f          	j	b98 <_vfprintf_r+0x9c4>
    16b8:	200df793          	andi	a5,s11,512
    16bc:	00078463          	beqz	a5,16c4 <_vfprintf_r+0x14f0>
    16c0:	0ffc7c13          	zext.b	s8,s8
    16c4:	00000c93          	li	s9,0
    16c8:	00100793          	li	a5,1
    16cc:	c9cff06f          	j	b68 <_vfprintf_r+0x994>
    16d0:	200af793          	andi	a5,s5,512
    16d4:	18079ee3          	bnez	a5,2070 <_vfprintf_r+0x1e9c>
    16d8:	00000c93          	li	s9,0
    16dc:	c84ff06f          	j	b60 <_vfprintf_r+0x98c>
    16e0:	200af793          	andi	a5,s5,512
    16e4:	160792e3          	bnez	a5,2048 <_vfprintf_r+0x1e74>
    16e8:	41fc5c93          	srai	s9,s8,0x1f
    16ec:	000c8793          	mv	a5,s9
    16f0:	d68ff06f          	j	c58 <_vfprintf_r+0xa84>
    16f4:	010af793          	andi	a5,s5,16
    16f8:	78079863          	bnez	a5,1e88 <_vfprintf_r+0x1cb4>
    16fc:	040af793          	andi	a5,s5,64
    1700:	14079ee3          	bnez	a5,205c <_vfprintf_r+0x1e88>
    1704:	200af813          	andi	a6,s5,512
    1708:	78080063          	beqz	a6,1e88 <_vfprintf_r+0x1cb4>
    170c:	01412783          	lw	a5,20(sp)
    1710:	00c12703          	lw	a4,12(sp)
    1714:	0007a783          	lw	a5,0(a5)
    1718:	00e78023          	sb	a4,0(a5)
    171c:	df0ff06f          	j	d0c <_vfprintf_r+0xb38>
    1720:	01412783          	lw	a5,20(sp)
    1724:	01412c23          	sw	s4,24(sp)
    1728:	06010513          	addi	a0,sp,96
    172c:	0007a703          	lw	a4,0(a5)
    1730:	00478a13          	addi	s4,a5,4
    1734:	01c12823          	sw	t3,16(sp)
    1738:	00072683          	lw	a3,0(a4)
    173c:	01412a23          	sw	s4,20(sp)
    1740:	06d12023          	sw	a3,96(sp)
    1744:	00472683          	lw	a3,4(a4)
    1748:	06d12223          	sw	a3,100(sp)
    174c:	00872683          	lw	a3,8(a4)
    1750:	06d12423          	sw	a3,104(sp)
    1754:	00c72703          	lw	a4,12(a4)
    1758:	06e12623          	sw	a4,108(sp)
    175c:	4fc0e0ef          	jal	ra,fc58 <__trunctfdf2>
    1760:	01012e03          	lw	t3,16(sp)
    1764:	01812303          	lw	t1,24(sp)
    1768:	02a12623          	sw	a0,44(sp)
    176c:	02b12823          	sw	a1,48(sp)
    1770:	fc1fe06f          	j	730 <_vfprintf_r+0x55c>
    1774:	04012783          	lw	a5,64(sp)
    1778:	0004ce03          	lbu	t3,0(s1)
    177c:	00079463          	bnez	a5,1784 <_vfprintf_r+0x15b0>
    1780:	bfdfe06f          	j	37c <_vfprintf_r+0x1a8>
    1784:	0007c783          	lbu	a5,0(a5)
    1788:	00079463          	bnez	a5,1790 <_vfprintf_r+0x15bc>
    178c:	bf1fe06f          	j	37c <_vfprintf_r+0x1a8>
    1790:	400aea93          	ori	s5,s5,1024
    1794:	be9fe06f          	j	37c <_vfprintf_r+0x1a8>
    1798:	00812583          	lw	a1,8(sp)
    179c:	0a010613          	addi	a2,sp,160
    17a0:	00098513          	mv	a0,s3
    17a4:	04612a23          	sw	t1,84(sp)
    17a8:	05c12823          	sw	t3,80(sp)
    17ac:	2c0080ef          	jal	ra,9a6c <__sprint_r>
    17b0:	00050463          	beqz	a0,17b8 <_vfprintf_r+0x15e4>
    17b4:	ed1fe06f          	j	684 <_vfprintf_r+0x4b0>
    17b8:	0a812a03          	lw	s4,168(sp)
    17bc:	05412303          	lw	t1,84(sp)
    17c0:	05012e03          	lw	t3,80(sp)
    17c4:	0ac10413          	addi	s0,sp,172
    17c8:	cd1fe06f          	j	498 <_vfprintf_r+0x2c4>
    17cc:	000a0313          	mv	t1,s4
    17d0:	000a8d93          	mv	s11,s5
    17d4:	c08ff06f          	j	bdc <_vfprintf_r+0xa08>
    17d8:	0001f797          	auipc	a5,0x1f
    17dc:	8e078793          	addi	a5,a5,-1824 # 200b8 <environ+0x2c>
    17e0:	000a0313          	mv	t1,s4
    17e4:	02f12e23          	sw	a5,60(sp)
    17e8:	020af793          	andi	a5,s5,32
    17ec:	12078c63          	beqz	a5,1924 <_vfprintf_r+0x1750>
    17f0:	01412783          	lw	a5,20(sp)
    17f4:	00778a13          	addi	s4,a5,7
    17f8:	ff8a7a13          	andi	s4,s4,-8
    17fc:	000a2c03          	lw	s8,0(s4)
    1800:	004a2c83          	lw	s9,4(s4)
    1804:	008a0793          	addi	a5,s4,8
    1808:	00f12a23          	sw	a5,20(sp)
    180c:	001af793          	andi	a5,s5,1
    1810:	00078e63          	beqz	a5,182c <_vfprintf_r+0x1658>
    1814:	019c67b3          	or	a5,s8,s9
    1818:	00078a63          	beqz	a5,182c <_vfprintf_r+0x1658>
    181c:	03000793          	li	a5,48
    1820:	06f10c23          	sb	a5,120(sp)
    1824:	07c10ca3          	sb	t3,121(sp)
    1828:	002aea93          	ori	s5,s5,2
    182c:	bffafd93          	andi	s11,s5,-1025
    1830:	00200793          	li	a5,2
    1834:	b34ff06f          	j	b68 <_vfprintf_r+0x994>
    1838:	0014ce03          	lbu	t3,1(s1)
    183c:	020aea93          	ori	s5,s5,32
    1840:	00148493          	addi	s1,s1,1
    1844:	b39fe06f          	j	37c <_vfprintf_r+0x1a8>
    1848:	0001f797          	auipc	a5,0x1f
    184c:	85c78793          	addi	a5,a5,-1956 # 200a4 <environ+0x18>
    1850:	000a0313          	mv	t1,s4
    1854:	02f12e23          	sw	a5,60(sp)
    1858:	f91ff06f          	j	17e8 <_vfprintf_r+0x1614>
    185c:	000a0313          	mv	t1,s4
    1860:	adcff06f          	j	b3c <_vfprintf_r+0x968>
    1864:	00812583          	lw	a1,8(sp)
    1868:	0a010613          	addi	a2,sp,160
    186c:	00098513          	mv	a0,s3
    1870:	1fc080ef          	jal	ra,9a6c <__sprint_r>
    1874:	00050463          	beqz	a0,187c <_vfprintf_r+0x16a8>
    1878:	e0dfe06f          	j	684 <_vfprintf_r+0x4b0>
    187c:	0a812703          	lw	a4,168(sp)
    1880:	0ac10413          	addi	s0,sp,172
    1884:	d34ff06f          	j	db8 <_vfprintf_r+0xbe4>
    1888:	0014ce03          	lbu	t3,1(s1)
    188c:	200aea93          	ori	s5,s5,512
    1890:	00148493          	addi	s1,s1,1
    1894:	ae9fe06f          	j	37c <_vfprintf_r+0x1a8>
    1898:	00600793          	li	a5,6
    189c:	000a0c13          	mv	s8,s4
    18a0:	7747ee63          	bltu	a5,s4,201c <_vfprintf_r+0x1e48>
    18a4:	01b12a23          	sw	s11,20(sp)
    18a8:	00012823          	sw	zero,16(sp)
    18ac:	000c0c93          	mv	s9,s8
    18b0:	00000613          	li	a2,0
    18b4:	00000313          	li	t1,0
    18b8:	02012423          	sw	zero,40(sp)
    18bc:	02012223          	sw	zero,36(sp)
    18c0:	00012c23          	sw	zero,24(sp)
    18c4:	0001fb97          	auipc	s7,0x1f
    18c8:	808b8b93          	addi	s7,s7,-2040 # 200cc <environ+0x40>
    18cc:	b3dfe06f          	j	408 <_vfprintf_r+0x234>
    18d0:	00800613          	li	a2,8
    18d4:	00000593          	li	a1,0
    18d8:	09810513          	addi	a0,sp,152
    18dc:	01c12823          	sw	t3,16(sp)
    18e0:	294060ef          	jal	ra,7b74 <memset>
    18e4:	01412783          	lw	a5,20(sp)
    18e8:	0ec10b93          	addi	s7,sp,236
    18ec:	09810693          	addi	a3,sp,152
    18f0:	0007a603          	lw	a2,0(a5)
    18f4:	000b8593          	mv	a1,s7
    18f8:	00098513          	mv	a0,s3
    18fc:	644010ef          	jal	ra,2f40 <_wcrtomb_r>
    1900:	fff00713          	li	a4,-1
    1904:	01012e03          	lw	t3,16(sp)
    1908:	00050c93          	mv	s9,a0
    190c:	00e51463          	bne	a0,a4,1914 <_vfprintf_r+0x1740>
    1910:	2780106f          	j	2b88 <_vfprintf_r+0x29b4>
    1914:	fff54893          	not	a7,a0
    1918:	41f8d893          	srai	a7,a7,0x1f
    191c:	01157c33          	and	s8,a0,a7
    1920:	8a0ff06f          	j	9c0 <_vfprintf_r+0x7ec>
    1924:	01412703          	lw	a4,20(sp)
    1928:	010af793          	andi	a5,s5,16
    192c:	00072c03          	lw	s8,0(a4)
    1930:	00470713          	addi	a4,a4,4
    1934:	00e12a23          	sw	a4,20(sp)
    1938:	08079063          	bnez	a5,19b8 <_vfprintf_r+0x17e4>
    193c:	040af793          	andi	a5,s5,64
    1940:	06078863          	beqz	a5,19b0 <_vfprintf_r+0x17dc>
    1944:	010c1c13          	slli	s8,s8,0x10
    1948:	010c5c13          	srli	s8,s8,0x10
    194c:	00000c93          	li	s9,0
    1950:	ebdff06f          	j	180c <_vfprintf_r+0x1638>
    1954:	00000c93          	li	s9,0
    1958:	15010b93          	addi	s7,sp,336
    195c:	a3cff06f          	j	b98 <_vfprintf_r+0x9c4>
    1960:	00812583          	lw	a1,8(sp)
    1964:	0a010613          	addi	a2,sp,160
    1968:	00098513          	mv	a0,s3
    196c:	100080ef          	jal	ra,9a6c <__sprint_r>
    1970:	00050463          	beqz	a0,1978 <_vfprintf_r+0x17a4>
    1974:	d11fe06f          	j	684 <_vfprintf_r+0x4b0>
    1978:	0a812703          	lw	a4,168(sp)
    197c:	0a412c83          	lw	s9,164(sp)
    1980:	0ac10d93          	addi	s11,sp,172
    1984:	f01fe06f          	j	884 <_vfprintf_r+0x6b0>
    1988:	00812583          	lw	a1,8(sp)
    198c:	0a010613          	addi	a2,sp,160
    1990:	00098513          	mv	a0,s3
    1994:	0d8080ef          	jal	ra,9a6c <__sprint_r>
    1998:	00050463          	beqz	a0,19a0 <_vfprintf_r+0x17cc>
    199c:	ce9fe06f          	j	684 <_vfprintf_r+0x4b0>
    19a0:	0a812703          	lw	a4,168(sp)
    19a4:	0a412c83          	lw	s9,164(sp)
    19a8:	0ac10d93          	addi	s11,sp,172
    19ac:	f09fe06f          	j	8b4 <_vfprintf_r+0x6e0>
    19b0:	200af793          	andi	a5,s5,512
    19b4:	68079463          	bnez	a5,203c <_vfprintf_r+0x1e68>
    19b8:	00000c93          	li	s9,0
    19bc:	e51ff06f          	j	180c <_vfprintf_r+0x1638>
    19c0:	ccccd8b7          	lui	a7,0xccccd
    19c4:	04012703          	lw	a4,64(sp)
    19c8:	400dff13          	andi	t5,s11,1024
    19cc:	00000613          	li	a2,0
    19d0:	15010593          	addi	a1,sp,336
    19d4:	00500813          	li	a6,5
    19d8:	ccd88693          	addi	a3,a7,-819 # cccccccd <_stack+0xccc8cccd>
    19dc:	ccc88a93          	addi	s5,a7,-820
    19e0:	0ff00a13          	li	s4,255
    19e4:	0540006f          	j	1a38 <_vfprintf_r+0x1864>
    19e8:	018bb7b3          	sltu	a5,s7,s8
    19ec:	00fb87b3          	add	a5,s7,a5
    19f0:	0307f7b3          	remu	a5,a5,a6
    19f4:	40fc07b3          	sub	a5,s8,a5
    19f8:	00fc35b3          	sltu	a1,s8,a5
    19fc:	40bc85b3          	sub	a1,s9,a1
    1a00:	03578eb3          	mul	t4,a5,s5
    1a04:	02d585b3          	mul	a1,a1,a3
    1a08:	02d7b533          	mulhu	a0,a5,a3
    1a0c:	01d585b3          	add	a1,a1,t4
    1a10:	02d787b3          	mul	a5,a5,a3
    1a14:	00a585b3          	add	a1,a1,a0
    1a18:	01f59513          	slli	a0,a1,0x1f
    1a1c:	0015d593          	srli	a1,a1,0x1
    1a20:	0017d793          	srli	a5,a5,0x1
    1a24:	00f567b3          	or	a5,a0,a5
    1a28:	6e0c8ee3          	beqz	s9,2924 <_vfprintf_r+0x2750>
    1a2c:	00058c93          	mv	s9,a1
    1a30:	00078c13          	mv	s8,a5
    1a34:	00088593          	mv	a1,a7
    1a38:	019c0bb3          	add	s7,s8,s9
    1a3c:	018bb7b3          	sltu	a5,s7,s8
    1a40:	00fb87b3          	add	a5,s7,a5
    1a44:	0307f7b3          	remu	a5,a5,a6
    1a48:	fff58893          	addi	a7,a1,-1
    1a4c:	00160613          	addi	a2,a2,1
    1a50:	40fc07b3          	sub	a5,s8,a5
    1a54:	00fc3533          	sltu	a0,s8,a5
    1a58:	40ac8533          	sub	a0,s9,a0
    1a5c:	02d7beb3          	mulhu	t4,a5,a3
    1a60:	02d50533          	mul	a0,a0,a3
    1a64:	02d787b3          	mul	a5,a5,a3
    1a68:	01d50533          	add	a0,a0,t4
    1a6c:	01f51513          	slli	a0,a0,0x1f
    1a70:	0017d793          	srli	a5,a5,0x1
    1a74:	00f567b3          	or	a5,a0,a5
    1a78:	00279513          	slli	a0,a5,0x2
    1a7c:	00f507b3          	add	a5,a0,a5
    1a80:	00179793          	slli	a5,a5,0x1
    1a84:	40fc07b3          	sub	a5,s8,a5
    1a88:	03078793          	addi	a5,a5,48
    1a8c:	fef58fa3          	sb	a5,-1(a1)
    1a90:	f40f0ce3          	beqz	t5,19e8 <_vfprintf_r+0x1814>
    1a94:	00074783          	lbu	a5,0(a4)
    1a98:	f4f618e3          	bne	a2,a5,19e8 <_vfprintf_r+0x1814>
    1a9c:	f54606e3          	beq	a2,s4,19e8 <_vfprintf_r+0x1814>
    1aa0:	300c94e3          	bnez	s9,25a8 <_vfprintf_r+0x23d4>
    1aa4:	00900793          	li	a5,9
    1aa8:	3187e0e3          	bltu	a5,s8,25a8 <_vfprintf_r+0x23d4>
    1aac:	00088b93          	mv	s7,a7
    1ab0:	15010793          	addi	a5,sp,336
    1ab4:	04e12023          	sw	a4,64(sp)
    1ab8:	02c12023          	sw	a2,32(sp)
    1abc:	41778cb3          	sub	s9,a5,s7
    1ac0:	000d8a93          	mv	s5,s11
    1ac4:	8d4ff06f          	j	b98 <_vfprintf_r+0x9c4>
    1ac8:	00812583          	lw	a1,8(sp)
    1acc:	0a010613          	addi	a2,sp,160
    1ad0:	00098513          	mv	a0,s3
    1ad4:	04612c23          	sw	t1,88(sp)
    1ad8:	05c12a23          	sw	t3,84(sp)
    1adc:	04512823          	sw	t0,80(sp)
    1ae0:	78d070ef          	jal	ra,9a6c <__sprint_r>
    1ae4:	00050463          	beqz	a0,1aec <_vfprintf_r+0x1918>
    1ae8:	b9dfe06f          	j	684 <_vfprintf_r+0x4b0>
    1aec:	07714603          	lbu	a2,119(sp)
    1af0:	05812303          	lw	t1,88(sp)
    1af4:	05412e03          	lw	t3,84(sp)
    1af8:	05012283          	lw	t0,80(sp)
    1afc:	0ac10413          	addi	s0,sp,172
    1b00:	925fe06f          	j	424 <_vfprintf_r+0x250>
    1b04:	02c12f03          	lw	t5,44(sp)
    1b08:	03012703          	lw	a4,48(sp)
    1b0c:	00612c23          	sw	t1,24(sp)
    1b10:	000f0613          	mv	a2,t5
    1b14:	000f0513          	mv	a0,t5
    1b18:	00070693          	mv	a3,a4
    1b1c:	00070593          	mv	a1,a4
    1b20:	01c12823          	sw	t3,16(sp)
    1b24:	6e10d0ef          	jal	ra,fa04 <__unorddf2>
    1b28:	01012e03          	lw	t3,16(sp)
    1b2c:	01812303          	lw	t1,24(sp)
    1b30:	00050463          	beqz	a0,1b38 <_vfprintf_r+0x1964>
    1b34:	1e40106f          	j	2d18 <_vfprintf_r+0x2b44>
    1b38:	06100713          	li	a4,97
    1b3c:	04ee0663          	beq	t3,a4,1b88 <_vfprintf_r+0x19b4>
    1b40:	04100713          	li	a4,65
    1b44:	05800793          	li	a5,88
    1b48:	04ee0263          	beq	t3,a4,1b8c <_vfprintf_r+0x19b8>
    1b4c:	fff00713          	li	a4,-1
    1b50:	00e31463          	bne	t1,a4,1b58 <_vfprintf_r+0x1984>
    1b54:	0c00106f          	j	2c14 <_vfprintf_r+0x2a40>
    1b58:	fdfe7713          	andi	a4,t3,-33
    1b5c:	04700693          	li	a3,71
    1b60:	00d71463          	bne	a4,a3,1b68 <_vfprintf_r+0x1994>
    1b64:	7bd0006f          	j	2b20 <_vfprintf_r+0x294c>
    1b68:	03012d83          	lw	s11,48(sp)
    1b6c:	100ae793          	ori	a5,s5,256
    1b70:	04f12823          	sw	a5,80(sp)
    1b74:	03512223          	sw	s5,36(sp)
    1b78:	500dc263          	bltz	s11,207c <_vfprintf_r+0x1ea8>
    1b7c:	04012a23          	sw	zero,84(sp)
    1b80:	00012823          	sw	zero,16(sp)
    1b84:	0500006f          	j	1bd4 <_vfprintf_r+0x1a00>
    1b88:	07800793          	li	a5,120
    1b8c:	03000713          	li	a4,48
    1b90:	06f10ca3          	sb	a5,121(sp)
    1b94:	002ae793          	ori	a5,s5,2
    1b98:	06e10c23          	sb	a4,120(sp)
    1b9c:	02f12223          	sw	a5,36(sp)
    1ba0:	06300713          	li	a4,99
    1ba4:	00012823          	sw	zero,16(sp)
    1ba8:	0ec10b93          	addi	s7,sp,236
    1bac:	6a674c63          	blt	a4,t1,2264 <_vfprintf_r+0x2090>
    1bb0:	102ae793          	ori	a5,s5,258
    1bb4:	04f12823          	sw	a5,80(sp)
    1bb8:	03012783          	lw	a5,48(sp)
    1bbc:	04012a23          	sw	zero,84(sp)
    1bc0:	00078d93          	mv	s11,a5
    1bc4:	4a07ce63          	bltz	a5,2080 <_vfprintf_r+0x1eac>
    1bc8:	06100713          	li	a4,97
    1bcc:	00ee1463          	bne	t3,a4,1bd4 <_vfprintf_r+0x1a00>
    1bd0:	0d00106f          	j	2ca0 <_vfprintf_r+0x2acc>
    1bd4:	fbfe0713          	addi	a4,t3,-65
    1bd8:	02500693          	li	a3,37
    1bdc:	02e6e063          	bltu	a3,a4,1bfc <_vfprintf_r+0x1a28>
    1be0:	0001e697          	auipc	a3,0x1e
    1be4:	66468693          	addi	a3,a3,1636 # 20244 <environ+0x1b8>
    1be8:	00271713          	slli	a4,a4,0x2
    1bec:	00d70733          	add	a4,a4,a3
    1bf0:	00072703          	lw	a4,0(a4)
    1bf4:	00d70733          	add	a4,a4,a3
    1bf8:	00070067          	jr	a4
    1bfc:	00030c93          	mv	s9,t1
    1c00:	00200693          	li	a3,2
    1c04:	02c12703          	lw	a4,44(sp)
    1c08:	09810893          	addi	a7,sp,152
    1c0c:	08410813          	addi	a6,sp,132
    1c10:	00070513          	mv	a0,a4
    1c14:	00050593          	mv	a1,a0
    1c18:	000c8713          	mv	a4,s9
    1c1c:	07c10793          	addi	a5,sp,124
    1c20:	000d8613          	mv	a2,s11
    1c24:	00098513          	mv	a0,s3
    1c28:	02612023          	sw	t1,32(sp)
    1c2c:	01c12c23          	sw	t3,24(sp)
    1c30:	794010ef          	jal	ra,33c4 <_dtoa_r>
    1c34:	01812e03          	lw	t3,24(sp)
    1c38:	06700713          	li	a4,103
    1c3c:	02012303          	lw	t1,32(sp)
    1c40:	00050b93          	mv	s7,a0
    1c44:	4cee0063          	beq	t3,a4,2104 <_vfprintf_r+0x1f30>
    1c48:	04700713          	li	a4,71
    1c4c:	4aee0c63          	beq	t3,a4,2104 <_vfprintf_r+0x1f30>
    1c50:	fdfe7a13          	andi	s4,t3,-33
    1c54:	04600693          	li	a3,70
    1c58:	01950c33          	add	s8,a0,s9
    1c5c:	00da1c63          	bne	s4,a3,1c74 <_vfprintf_r+0x1aa0>
    1c60:	00054603          	lbu	a2,0(a0)
    1c64:	03000693          	li	a3,48
    1c68:	62d60463          	beq	a2,a3,2290 <_vfprintf_r+0x20bc>
    1c6c:	07c12683          	lw	a3,124(sp)
    1c70:	00dc0c33          	add	s8,s8,a3
    1c74:	02c12683          	lw	a3,44(sp)
    1c78:	000d8593          	mv	a1,s11
    1c7c:	00000613          	li	a2,0
    1c80:	00068513          	mv	a0,a3
    1c84:	00000693          	li	a3,0
    1c88:	02612023          	sw	t1,32(sp)
    1c8c:	01c12c23          	sw	t3,24(sp)
    1c90:	2ad0c0ef          	jal	ra,e73c <__eqdf2>
    1c94:	01812e03          	lw	t3,24(sp)
    1c98:	02012303          	lw	t1,32(sp)
    1c9c:	000c0a93          	mv	s5,s8
    1ca0:	02050263          	beqz	a0,1cc4 <_vfprintf_r+0x1af0>
    1ca4:	09812a83          	lw	s5,152(sp)
    1ca8:	018afe63          	bgeu	s5,s8,1cc4 <_vfprintf_r+0x1af0>
    1cac:	03000613          	li	a2,48
    1cb0:	001a8793          	addi	a5,s5,1
    1cb4:	08f12c23          	sw	a5,152(sp)
    1cb8:	00ca8023          	sb	a2,0(s5)
    1cbc:	09812a83          	lw	s5,152(sp)
    1cc0:	ff8ae8e3          	bltu	s5,s8,1cb0 <_vfprintf_r+0x1adc>
    1cc4:	417a87b3          	sub	a5,s5,s7
    1cc8:	02f12023          	sw	a5,32(sp)
    1ccc:	07c12603          	lw	a2,124(sp)
    1cd0:	04700713          	li	a4,71
    1cd4:	00c12c23          	sw	a2,24(sp)
    1cd8:	44ea0463          	beq	s4,a4,2120 <_vfprintf_r+0x1f4c>
    1cdc:	04600713          	li	a4,70
    1ce0:	48ea00e3          	beq	s4,a4,2960 <_vfprintf_r+0x278c>
    1ce4:	fff60313          	addi	t1,a2,-1
    1ce8:	06612e23          	sw	t1,124(sp)
    1cec:	06100713          	li	a4,97
    1cf0:	00ee1463          	bne	t3,a4,1cf8 <_vfprintf_r+0x1b24>
    1cf4:	10c0106f          	j	2e00 <_vfprintf_r+0x2c2c>
    1cf8:	04100693          	li	a3,65
    1cfc:	05000713          	li	a4,80
    1d00:	42de1e63          	bne	t3,a3,213c <_vfprintf_r+0x1f68>
    1d04:	00100693          	li	a3,1
    1d08:	43c0006f          	j	2144 <_vfprintf_r+0x1f70>
    1d0c:	00812583          	lw	a1,8(sp)
    1d10:	0a010613          	addi	a2,sp,160
    1d14:	00098513          	mv	a0,s3
    1d18:	555070ef          	jal	ra,9a6c <__sprint_r>
    1d1c:	00050463          	beqz	a0,1d24 <_vfprintf_r+0x1b50>
    1d20:	965fe06f          	j	684 <_vfprintf_r+0x4b0>
    1d24:	0a812a03          	lw	s4,168(sp)
    1d28:	0ac10413          	addi	s0,sp,172
    1d2c:	850ff06f          	j	d7c <_vfprintf_r+0xba8>
    1d30:	00800613          	li	a2,8
    1d34:	00000593          	li	a1,0
    1d38:	09810513          	addi	a0,sp,152
    1d3c:	00612a23          	sw	t1,20(sp)
    1d40:	01c12823          	sw	t3,16(sp)
    1d44:	09712223          	sw	s7,132(sp)
    1d48:	62d050ef          	jal	ra,7b74 <memset>
    1d4c:	01412303          	lw	t1,20(sp)
    1d50:	fff00713          	li	a4,-1
    1d54:	01012e03          	lw	t3,16(sp)
    1d58:	7ae30c63          	beq	t1,a4,2510 <_vfprintf_r+0x233c>
    1d5c:	00000c93          	li	s9,0
    1d60:	00912823          	sw	s1,16(sp)
    1d64:	000b8c13          	mv	s8,s7
    1d68:	fff00a13          	li	s4,-1
    1d6c:	00040b93          	mv	s7,s0
    1d70:	01c12a23          	sw	t3,20(sp)
    1d74:	000c8493          	mv	s1,s9
    1d78:	00030413          	mv	s0,t1
    1d7c:	02c0006f          	j	1da8 <_vfprintf_r+0x1bd4>
    1d80:	09810693          	addi	a3,sp,152
    1d84:	0ec10593          	addi	a1,sp,236
    1d88:	00098513          	mv	a0,s3
    1d8c:	1b4010ef          	jal	ra,2f40 <_wcrtomb_r>
    1d90:	5f450ce3          	beq	a0,s4,2b88 <_vfprintf_r+0x29b4>
    1d94:	00a487b3          	add	a5,s1,a0
    1d98:	02f44063          	blt	s0,a5,1db8 <_vfprintf_r+0x1be4>
    1d9c:	004c8c93          	addi	s9,s9,4
    1da0:	74878ee3          	beq	a5,s0,2cfc <_vfprintf_r+0x2b28>
    1da4:	00078493          	mv	s1,a5
    1da8:	08412783          	lw	a5,132(sp)
    1dac:	019787b3          	add	a5,a5,s9
    1db0:	0007a603          	lw	a2,0(a5)
    1db4:	fc0616e3          	bnez	a2,1d80 <_vfprintf_r+0x1bac>
    1db8:	00048c93          	mv	s9,s1
    1dbc:	01412e03          	lw	t3,20(sp)
    1dc0:	01012483          	lw	s1,16(sp)
    1dc4:	000b8413          	mv	s0,s7
    1dc8:	000c0b93          	mv	s7,s8
    1dcc:	2c0c82e3          	beqz	s9,2890 <_vfprintf_r+0x26bc>
    1dd0:	06300793          	li	a5,99
    1dd4:	3f97dee3          	bge	a5,s9,29d0 <_vfprintf_r+0x27fc>
    1dd8:	001c8593          	addi	a1,s9,1
    1ddc:	00098513          	mv	a0,s3
    1de0:	01c12823          	sw	t3,16(sp)
    1de4:	29d040ef          	jal	ra,6880 <_malloc_r>
    1de8:	01012e03          	lw	t3,16(sp)
    1dec:	00050b93          	mv	s7,a0
    1df0:	58050ce3          	beqz	a0,2b88 <_vfprintf_r+0x29b4>
    1df4:	00a12823          	sw	a0,16(sp)
    1df8:	00800613          	li	a2,8
    1dfc:	00000593          	li	a1,0
    1e00:	09810513          	addi	a0,sp,152
    1e04:	01c12a23          	sw	t3,20(sp)
    1e08:	56d050ef          	jal	ra,7b74 <memset>
    1e0c:	09810713          	addi	a4,sp,152
    1e10:	000c8693          	mv	a3,s9
    1e14:	08410613          	addi	a2,sp,132
    1e18:	000b8593          	mv	a1,s7
    1e1c:	00098513          	mv	a0,s3
    1e20:	254010ef          	jal	ra,3074 <_wcsrtombs_r>
    1e24:	01412e03          	lw	t3,20(sp)
    1e28:	00ac8463          	beq	s9,a0,1e30 <_vfprintf_r+0x1c5c>
    1e2c:	7ed0006f          	j	2e18 <_vfprintf_r+0x2c44>
    1e30:	019b8733          	add	a4,s7,s9
    1e34:	00070023          	sb	zero,0(a4)
    1e38:	07714603          	lbu	a2,119(sp)
    1e3c:	fffcc893          	not	a7,s9
    1e40:	41f8d893          	srai	a7,a7,0x1f
    1e44:	01b12a23          	sw	s11,20(sp)
    1e48:	02012423          	sw	zero,40(sp)
    1e4c:	02012223          	sw	zero,36(sp)
    1e50:	00012c23          	sw	zero,24(sp)
    1e54:	011cfc33          	and	s8,s9,a7
    1e58:	00000313          	li	t1,0
    1e5c:	00061463          	bnez	a2,1e64 <_vfprintf_r+0x1c90>
    1e60:	da8fe06f          	j	408 <_vfprintf_r+0x234>
    1e64:	9a5fe06f          	j	808 <_vfprintf_r+0x634>
    1e68:	00048693          	mv	a3,s1
    1e6c:	00090493          	mv	s1,s2
    1e70:	000a0913          	mv	s2,s4
    1e74:	00068a13          	mv	s4,a3
    1e78:	01970733          	add	a4,a4,s9
    1e7c:	00178793          	addi	a5,a5,1
    1e80:	01442023          	sw	s4,0(s0)
    1e84:	e34fe06f          	j	4b8 <_vfprintf_r+0x2e4>
    1e88:	01412783          	lw	a5,20(sp)
    1e8c:	00c12703          	lw	a4,12(sp)
    1e90:	0007a783          	lw	a5,0(a5)
    1e94:	00e7a023          	sw	a4,0(a5)
    1e98:	e75fe06f          	j	d0c <_vfprintf_r+0xb38>
    1e9c:	00040793          	mv	a5,s0
    1ea0:	000a0413          	mv	s0,s4
    1ea4:	00078a13          	mv	s4,a5
    1ea8:	00870733          	add	a4,a4,s0
    1eac:	001c8c93          	addi	s9,s9,1
    1eb0:	014da023          	sw	s4,0(s11)
    1eb4:	a41fe06f          	j	8f4 <_vfprintf_r+0x720>
    1eb8:	01000593          	li	a1,16
    1ebc:	000a0713          	mv	a4,s4
    1ec0:	0a412603          	lw	a2,164(sp)
    1ec4:	0001ea17          	auipc	s4,0x1e
    1ec8:	418a0a13          	addi	s4,s4,1048 # 202dc <zeroes.0>
    1ecc:	0f95da63          	bge	a1,s9,1fc0 <_vfprintf_r+0x1dec>
    1ed0:	000a0793          	mv	a5,s4
    1ed4:	00812d83          	lw	s11,8(sp)
    1ed8:	00090a13          	mv	s4,s2
    1edc:	01000e13          	li	t3,16
    1ee0:	00048913          	mv	s2,s1
    1ee4:	00700f13          	li	t5,7
    1ee8:	04612823          	sw	t1,80(sp)
    1eec:	00078493          	mv	s1,a5
    1ef0:	00c0006f          	j	1efc <_vfprintf_r+0x1d28>
    1ef4:	ff0c8c93          	addi	s9,s9,-16
    1ef8:	0b9e5a63          	bge	t3,s9,1fac <_vfprintf_r+0x1dd8>
    1efc:	01070713          	addi	a4,a4,16
    1f00:	00160613          	addi	a2,a2,1
    1f04:	00942023          	sw	s1,0(s0)
    1f08:	01c42223          	sw	t3,4(s0)
    1f0c:	0ae12423          	sw	a4,168(sp)
    1f10:	0ac12223          	sw	a2,164(sp)
    1f14:	00840413          	addi	s0,s0,8
    1f18:	fccf5ee3          	bge	t5,a2,1ef4 <_vfprintf_r+0x1d20>
    1f1c:	0a010613          	addi	a2,sp,160
    1f20:	000d8593          	mv	a1,s11
    1f24:	00098513          	mv	a0,s3
    1f28:	345070ef          	jal	ra,9a6c <__sprint_r>
    1f2c:	00050463          	beqz	a0,1f34 <_vfprintf_r+0x1d60>
    1f30:	f54fe06f          	j	684 <_vfprintf_r+0x4b0>
    1f34:	0a812703          	lw	a4,168(sp)
    1f38:	0a412603          	lw	a2,164(sp)
    1f3c:	0ac10413          	addi	s0,sp,172
    1f40:	00700f13          	li	t5,7
    1f44:	01000e13          	li	t3,16
    1f48:	fadff06f          	j	1ef4 <_vfprintf_r+0x1d20>
    1f4c:	03812683          	lw	a3,56(sp)
    1f50:	03412783          	lw	a5,52(sp)
    1f54:	00700613          	li	a2,7
    1f58:	00d42023          	sw	a3,0(s0)
    1f5c:	0a412683          	lw	a3,164(sp)
    1f60:	00e78733          	add	a4,a5,a4
    1f64:	00f42223          	sw	a5,4(s0)
    1f68:	00168693          	addi	a3,a3,1
    1f6c:	0ae12423          	sw	a4,168(sp)
    1f70:	0ad12223          	sw	a3,164(sp)
    1f74:	00840413          	addi	s0,s0,8
    1f78:	14d64663          	blt	a2,a3,20c4 <_vfprintf_r+0x1ef0>
    1f7c:	2605c0e3          	bltz	a1,29dc <_vfprintf_r+0x2808>
    1f80:	02012783          	lw	a5,32(sp)
    1f84:	00168693          	addi	a3,a3,1
    1f88:	01742023          	sw	s7,0(s0)
    1f8c:	00e78733          	add	a4,a5,a4
    1f90:	00f42223          	sw	a5,4(s0)
    1f94:	0ae12423          	sw	a4,168(sp)
    1f98:	0ad12223          	sw	a3,164(sp)
    1f9c:	00700793          	li	a5,7
    1fa0:	00d7c463          	blt	a5,a3,1fa8 <_vfprintf_r+0x1dd4>
    1fa4:	d28fe06f          	j	4cc <_vfprintf_r+0x2f8>
    1fa8:	991fe06f          	j	938 <_vfprintf_r+0x764>
    1fac:	05012303          	lw	t1,80(sp)
    1fb0:	00048793          	mv	a5,s1
    1fb4:	00090493          	mv	s1,s2
    1fb8:	000a0913          	mv	s2,s4
    1fbc:	00078a13          	mv	s4,a5
    1fc0:	00ec8733          	add	a4,s9,a4
    1fc4:	00160613          	addi	a2,a2,1
    1fc8:	01442023          	sw	s4,0(s0)
    1fcc:	01942223          	sw	s9,4(s0)
    1fd0:	0ae12423          	sw	a4,168(sp)
    1fd4:	0ac12223          	sw	a2,164(sp)
    1fd8:	00700693          	li	a3,7
    1fdc:	24c6ce63          	blt	a3,a2,2238 <_vfprintf_r+0x2064>
    1fe0:	00840413          	addi	s0,s0,8
    1fe4:	00070a13          	mv	s4,a4
    1fe8:	b20ff06f          	j	1308 <_vfprintf_r+0x1134>
    1fec:	00068c93          	mv	s9,a3
    1ff0:	b84ff06f          	j	1374 <_vfprintf_r+0x11a0>
    1ff4:	00812583          	lw	a1,8(sp)
    1ff8:	0a010613          	addi	a2,sp,160
    1ffc:	00098513          	mv	a0,s3
    2000:	26d070ef          	jal	ra,9a6c <__sprint_r>
    2004:	00050463          	beqz	a0,200c <_vfprintf_r+0x1e38>
    2008:	e7cfe06f          	j	684 <_vfprintf_r+0x4b0>
    200c:	07c12583          	lw	a1,124(sp)
    2010:	0a812703          	lw	a4,168(sp)
    2014:	0ac10413          	addi	s0,sp,172
    2018:	e44ff06f          	j	165c <_vfprintf_r+0x1488>
    201c:	00600c13          	li	s8,6
    2020:	885ff06f          	j	18a4 <_vfprintf_r+0x16d0>
    2024:	40d786b3          	sub	a3,a5,a3
    2028:	41730cb3          	sub	s9,t1,s7
    202c:	000a0713          	mv	a4,s4
    2030:	b796da63          	bge	a3,s9,13a4 <_vfprintf_r+0x11d0>
    2034:	00068c93          	mv	s9,a3
    2038:	b6cff06f          	j	13a4 <_vfprintf_r+0x11d0>
    203c:	0ffc7c13          	zext.b	s8,s8
    2040:	00000c93          	li	s9,0
    2044:	fc8ff06f          	j	180c <_vfprintf_r+0x1638>
    2048:	018c1c13          	slli	s8,s8,0x18
    204c:	418c5c13          	srai	s8,s8,0x18
    2050:	41fc5c93          	srai	s9,s8,0x1f
    2054:	000c8793          	mv	a5,s9
    2058:	c01fe06f          	j	c58 <_vfprintf_r+0xa84>
    205c:	01412783          	lw	a5,20(sp)
    2060:	00c12703          	lw	a4,12(sp)
    2064:	0007a783          	lw	a5,0(a5)
    2068:	00e79023          	sh	a4,0(a5)
    206c:	ca1fe06f          	j	d0c <_vfprintf_r+0xb38>
    2070:	0ffc7c13          	zext.b	s8,s8
    2074:	00000c93          	li	s9,0
    2078:	ae9fe06f          	j	b60 <_vfprintf_r+0x98c>
    207c:	00012823          	sw	zero,16(sp)
    2080:	03012783          	lw	a5,48(sp)
    2084:	80000737          	lui	a4,0x80000
    2088:	00f74db3          	xor	s11,a4,a5
    208c:	02d00793          	li	a5,45
    2090:	04f12a23          	sw	a5,84(sp)
    2094:	b35ff06f          	j	1bc8 <_vfprintf_r+0x19f4>
    2098:	00812583          	lw	a1,8(sp)
    209c:	0a010613          	addi	a2,sp,160
    20a0:	00098513          	mv	a0,s3
    20a4:	1c9070ef          	jal	ra,9a6c <__sprint_r>
    20a8:	00051463          	bnez	a0,20b0 <_vfprintf_r+0x1edc>
    20ac:	d98fe06f          	j	644 <_vfprintf_r+0x470>
    20b0:	de8fe06f          	j	698 <_vfprintf_r+0x4c4>
    20b4:	000b8513          	mv	a0,s7
    20b8:	4e8070ef          	jal	ra,95a0 <strlen>
    20bc:	00050c93          	mv	s9,a0
    20c0:	991fe06f          	j	a50 <_vfprintf_r+0x87c>
    20c4:	00812583          	lw	a1,8(sp)
    20c8:	0a010613          	addi	a2,sp,160
    20cc:	00098513          	mv	a0,s3
    20d0:	19d070ef          	jal	ra,9a6c <__sprint_r>
    20d4:	00050463          	beqz	a0,20dc <_vfprintf_r+0x1f08>
    20d8:	dacfe06f          	j	684 <_vfprintf_r+0x4b0>
    20dc:	07c12583          	lw	a1,124(sp)
    20e0:	0a812703          	lw	a4,168(sp)
    20e4:	0a412683          	lw	a3,164(sp)
    20e8:	0ac10413          	addi	s0,sp,172
    20ec:	e91ff06f          	j	1f7c <_vfprintf_r+0x1da8>
    20f0:	05862503          	lw	a0,88(a2)
    20f4:	00f12623          	sw	a5,12(sp)
    20f8:	51c040ef          	jal	ra,6614 <__retarget_lock_release_recursive>
    20fc:	00c12783          	lw	a5,12(sp)
    2100:	c74fe06f          	j	574 <_vfprintf_r+0x3a0>
    2104:	02412783          	lw	a5,36(sp)
    2108:	0017f713          	andi	a4,a5,1
    210c:	140712e3          	bnez	a4,2a50 <_vfprintf_r+0x287c>
    2110:	09812a83          	lw	s5,152(sp)
    2114:	07c12603          	lw	a2,124(sp)
    2118:	417a87b3          	sub	a5,s5,s7
    211c:	02f12023          	sw	a5,32(sp)
    2120:	ffd00713          	li	a4,-3
    2124:	00c12c23          	sw	a2,24(sp)
    2128:	00e64463          	blt	a2,a4,2130 <_vfprintf_r+0x1f5c>
    212c:	42c35663          	bge	t1,a2,2558 <_vfprintf_r+0x2384>
    2130:	fff60313          	addi	t1,a2,-1
    2134:	ffee0e13          	addi	t3,t3,-2
    2138:	06612e23          	sw	t1,124(sp)
    213c:	0ffe7713          	zext.b	a4,t3
    2140:	00000693          	li	a3,0
    2144:	08e10423          	sb	a4,136(sp)
    2148:	02b00713          	li	a4,43
    214c:	00035863          	bgez	t1,215c <_vfprintf_r+0x1f88>
    2150:	00100313          	li	t1,1
    2154:	40c30333          	sub	t1,t1,a2
    2158:	02d00713          	li	a4,45
    215c:	08e104a3          	sb	a4,137(sp)
    2160:	00900713          	li	a4,9
    2164:	22675ce3          	bge	a4,t1,2b9c <_vfprintf_r+0x29c8>
    2168:	09f10893          	addi	a7,sp,159
    216c:	00088693          	mv	a3,a7
    2170:	00a00613          	li	a2,10
    2174:	06300513          	li	a0,99
    2178:	02c367b3          	rem	a5,t1,a2
    217c:	00068813          	mv	a6,a3
    2180:	00030713          	mv	a4,t1
    2184:	fff68693          	addi	a3,a3,-1
    2188:	03078793          	addi	a5,a5,48
    218c:	fef80fa3          	sb	a5,-1(a6)
    2190:	02c34333          	div	t1,t1,a2
    2194:	fee542e3          	blt	a0,a4,2178 <_vfprintf_r+0x1fa4>
    2198:	03030313          	addi	t1,t1,48
    219c:	ffe80713          	addi	a4,a6,-2
    21a0:	fe668fa3          	sb	t1,-1(a3)
    21a4:	451778e3          	bgeu	a4,a7,2df4 <_vfprintf_r+0x2c20>
    21a8:	08a10693          	addi	a3,sp,138
    21ac:	00074783          	lbu	a5,0(a4) # 80000000 <_stack+0x7ffc0000>
    21b0:	00170713          	addi	a4,a4,1
    21b4:	00168693          	addi	a3,a3,1
    21b8:	fef68fa3          	sb	a5,-1(a3)
    21bc:	ff1718e3          	bne	a4,a7,21ac <_vfprintf_r+0x1fd8>
    21c0:	0a110713          	addi	a4,sp,161
    21c4:	08a10793          	addi	a5,sp,138
    21c8:	41070733          	sub	a4,a4,a6
    21cc:	00e78733          	add	a4,a5,a4
    21d0:	08810693          	addi	a3,sp,136
    21d4:	40d707b3          	sub	a5,a4,a3
    21d8:	04f12223          	sw	a5,68(sp)
    21dc:	02012783          	lw	a5,32(sp)
    21e0:	04412683          	lw	a3,68(sp)
    21e4:	00100713          	li	a4,1
    21e8:	00d78cb3          	add	s9,a5,a3
    21ec:	20f75ce3          	bge	a4,a5,2c04 <_vfprintf_r+0x2a30>
    21f0:	03412783          	lw	a5,52(sp)
    21f4:	00fc8cb3          	add	s9,s9,a5
    21f8:	02412783          	lw	a5,36(sp)
    21fc:	fffcc893          	not	a7,s9
    2200:	41f8d893          	srai	a7,a7,0x1f
    2204:	bff7f813          	andi	a6,a5,-1025
    2208:	10086a93          	ori	s5,a6,256
    220c:	011cfc33          	and	s8,s9,a7
    2210:	02012423          	sw	zero,40(sp)
    2214:	02012223          	sw	zero,36(sp)
    2218:	00012c23          	sw	zero,24(sp)
    221c:	05412783          	lw	a5,84(sp)
    2220:	2c079c63          	bnez	a5,24f8 <_vfprintf_r+0x2324>
    2224:	07714603          	lbu	a2,119(sp)
    2228:	00000313          	li	t1,0
    222c:	00061463          	bnez	a2,2234 <_vfprintf_r+0x2060>
    2230:	9d8fe06f          	j	408 <_vfprintf_r+0x234>
    2234:	dd4fe06f          	j	808 <_vfprintf_r+0x634>
    2238:	00812583          	lw	a1,8(sp)
    223c:	0a010613          	addi	a2,sp,160
    2240:	00098513          	mv	a0,s3
    2244:	04612823          	sw	t1,80(sp)
    2248:	025070ef          	jal	ra,9a6c <__sprint_r>
    224c:	00050463          	beqz	a0,2254 <_vfprintf_r+0x2080>
    2250:	c34fe06f          	j	684 <_vfprintf_r+0x4b0>
    2254:	0a812a03          	lw	s4,168(sp)
    2258:	05012303          	lw	t1,80(sp)
    225c:	0ac10413          	addi	s0,sp,172
    2260:	8a8ff06f          	j	1308 <_vfprintf_r+0x1134>
    2264:	00130593          	addi	a1,t1,1
    2268:	00098513          	mv	a0,s3
    226c:	01c12c23          	sw	t3,24(sp)
    2270:	00612823          	sw	t1,16(sp)
    2274:	60c040ef          	jal	ra,6880 <_malloc_r>
    2278:	01012303          	lw	t1,16(sp)
    227c:	01812e03          	lw	t3,24(sp)
    2280:	00050b93          	mv	s7,a0
    2284:	100502e3          	beqz	a0,2b88 <_vfprintf_r+0x29b4>
    2288:	00a12823          	sw	a0,16(sp)
    228c:	925ff06f          	j	1bb0 <_vfprintf_r+0x19dc>
    2290:	02c12603          	lw	a2,44(sp)
    2294:	000d8593          	mv	a1,s11
    2298:	00000693          	li	a3,0
    229c:	00060513          	mv	a0,a2
    22a0:	00000613          	li	a2,0
    22a4:	02612023          	sw	t1,32(sp)
    22a8:	01c12c23          	sw	t3,24(sp)
    22ac:	4900c0ef          	jal	ra,e73c <__eqdf2>
    22b0:	01812e03          	lw	t3,24(sp)
    22b4:	02012303          	lw	t1,32(sp)
    22b8:	9a050ae3          	beqz	a0,1c6c <_vfprintf_r+0x1a98>
    22bc:	00100693          	li	a3,1
    22c0:	419686b3          	sub	a3,a3,s9
    22c4:	06d12e23          	sw	a3,124(sp)
    22c8:	9a9ff06f          	j	1c70 <_vfprintf_r+0x1a9c>
    22cc:	02c12703          	lw	a4,44(sp)
    22d0:	000d8593          	mv	a1,s11
    22d4:	07c10613          	addi	a2,sp,124
    22d8:	00070513          	mv	a0,a4
    22dc:	02612023          	sw	t1,32(sp)
    22e0:	01c12c23          	sw	t3,24(sp)
    22e4:	3e9060ef          	jal	ra,8ecc <frexp>
    22e8:	0001e717          	auipc	a4,0x1e
    22ec:	d3070713          	addi	a4,a4,-720 # 20018 <__DTOR_END__+0x8>
    22f0:	00072603          	lw	a2,0(a4)
    22f4:	00472683          	lw	a3,4(a4)
    22f8:	6d40c0ef          	jal	ra,e9cc <__muldf3>
    22fc:	00000613          	li	a2,0
    2300:	00000693          	li	a3,0
    2304:	00050c93          	mv	s9,a0
    2308:	00058d93          	mv	s11,a1
    230c:	4300c0ef          	jal	ra,e73c <__eqdf2>
    2310:	01812e03          	lw	t3,24(sp)
    2314:	02012303          	lw	t1,32(sp)
    2318:	00051e63          	bnez	a0,2334 <_vfprintf_r+0x2160>
    231c:	00100713          	li	a4,1
    2320:	06e12e23          	sw	a4,124(sp)
    2324:	06100713          	li	a4,97
    2328:	0001e817          	auipc	a6,0x1e
    232c:	d7c80813          	addi	a6,a6,-644 # 200a4 <environ+0x18>
    2330:	00ee0663          	beq	t3,a4,233c <_vfprintf_r+0x2168>
    2334:	0001e817          	auipc	a6,0x1e
    2338:	d8480813          	addi	a6,a6,-636 # 200b8 <environ+0x2c>
    233c:	0001e717          	auipc	a4,0x1e
    2340:	ce470713          	addi	a4,a4,-796 # 20020 <__DTOR_END__+0x10>
    2344:	00472783          	lw	a5,4(a4)
    2348:	00072703          	lw	a4,0(a4)
    234c:	05212c23          	sw	s2,88(sp)
    2350:	00f12e23          	sw	a5,28(sp)
    2354:	000c8793          	mv	a5,s9
    2358:	000b8913          	mv	s2,s7
    235c:	00098c93          	mv	s9,s3
    2360:	000d8a13          	mv	s4,s11
    2364:	00e12c23          	sw	a4,24(sp)
    2368:	000b8d93          	mv	s11,s7
    236c:	fff30c13          	addi	s8,t1,-1
    2370:	00040b93          	mv	s7,s0
    2374:	02912023          	sw	s1,32(sp)
    2378:	03c12423          	sw	t3,40(sp)
    237c:	04612e23          	sw	t1,92(sp)
    2380:	00080413          	mv	s0,a6
    2384:	00078993          	mv	s3,a5
    2388:	01c0006f          	j	23a4 <_vfprintf_r+0x21d0>
    238c:	00000693          	li	a3,0
    2390:	00000613          	li	a2,0
    2394:	3a80c0ef          	jal	ra,e73c <__eqdf2>
    2398:	fffc0693          	addi	a3,s8,-1
    239c:	020508e3          	beqz	a0,2bcc <_vfprintf_r+0x29f8>
    23a0:	00068c13          	mv	s8,a3
    23a4:	01812603          	lw	a2,24(sp)
    23a8:	01c12683          	lw	a3,28(sp)
    23ac:	00098513          	mv	a0,s3
    23b0:	000a0593          	mv	a1,s4
    23b4:	6180c0ef          	jal	ra,e9cc <__muldf3>
    23b8:	00058493          	mv	s1,a1
    23bc:	00050993          	mv	s3,a0
    23c0:	6980d0ef          	jal	ra,fa58 <__fixdfsi>
    23c4:	00050a93          	mv	s5,a0
    23c8:	7140d0ef          	jal	ra,fadc <__floatsidf>
    23cc:	00058693          	mv	a3,a1
    23d0:	00050613          	mv	a2,a0
    23d4:	00048593          	mv	a1,s1
    23d8:	00098513          	mv	a0,s3
    23dc:	5150c0ef          	jal	ra,f0f0 <__subdf3>
    23e0:	01540733          	add	a4,s0,s5
    23e4:	00074683          	lbu	a3,0(a4)
    23e8:	fff00793          	li	a5,-1
    23ec:	00090493          	mv	s1,s2
    23f0:	00d90023          	sb	a3,0(s2)
    23f4:	00050993          	mv	s3,a0
    23f8:	00190913          	addi	s2,s2,1
    23fc:	00058a13          	mv	s4,a1
    2400:	f8fc16e3          	bne	s8,a5,238c <_vfprintf_r+0x21b8>
    2404:	00912c23          	sw	s1,24(sp)
    2408:	00090a13          	mv	s4,s2
    240c:	02812e03          	lw	t3,40(sp)
    2410:	05c12303          	lw	t1,92(sp)
    2414:	02012483          	lw	s1,32(sp)
    2418:	05812903          	lw	s2,88(sp)
    241c:	00040813          	mv	a6,s0
    2420:	000c8993          	mv	s3,s9
    2424:	000b8413          	mv	s0,s7
    2428:	00050c93          	mv	s9,a0
    242c:	000d8b93          	mv	s7,s11
    2430:	fff00c13          	li	s8,-1
    2434:	00058d93          	mv	s11,a1
    2438:	0001e697          	auipc	a3,0x1e
    243c:	bf068693          	addi	a3,a3,-1040 # 20028 <__DTOR_END__+0x18>
    2440:	0006a703          	lw	a4,0(a3)
    2444:	0046a783          	lw	a5,4(a3)
    2448:	000c8513          	mv	a0,s9
    244c:	000d8593          	mv	a1,s11
    2450:	00070613          	mv	a2,a4
    2454:	00078693          	mv	a3,a5
    2458:	05012c23          	sw	a6,88(sp)
    245c:	02612423          	sw	t1,40(sp)
    2460:	03c12023          	sw	t3,32(sp)
    2464:	3640c0ef          	jal	ra,e7c8 <__gedf2>
    2468:	02012e03          	lw	t3,32(sp)
    246c:	02812303          	lw	t1,40(sp)
    2470:	05812803          	lw	a6,88(sp)
    2474:	64a04e63          	bgtz	a0,2ad0 <_vfprintf_r+0x28fc>
    2478:	0001e797          	auipc	a5,0x1e
    247c:	bb078793          	addi	a5,a5,-1104 # 20028 <__DTOR_END__+0x18>
    2480:	0007a703          	lw	a4,0(a5)
    2484:	0047a783          	lw	a5,4(a5)
    2488:	000c8513          	mv	a0,s9
    248c:	000d8593          	mv	a1,s11
    2490:	00070613          	mv	a2,a4
    2494:	00078693          	mv	a3,a5
    2498:	2a40c0ef          	jal	ra,e73c <__eqdf2>
    249c:	02012e03          	lw	t3,32(sp)
    24a0:	02812303          	lw	t1,40(sp)
    24a4:	05812803          	lw	a6,88(sp)
    24a8:	00051663          	bnez	a0,24b4 <_vfprintf_r+0x22e0>
    24ac:	001afa93          	andi	s5,s5,1
    24b0:	620a9063          	bnez	s5,2ad0 <_vfprintf_r+0x28fc>
    24b4:	001c0a93          	addi	s5,s8,1
    24b8:	015a0ab3          	add	s5,s4,s5
    24bc:	03000693          	li	a3,48
    24c0:	640c4c63          	bltz	s8,2b18 <_vfprintf_r+0x2944>
    24c4:	001a0a13          	addi	s4,s4,1
    24c8:	feda0fa3          	sb	a3,-1(s4)
    24cc:	ff4a9ce3          	bne	s5,s4,24c4 <_vfprintf_r+0x22f0>
    24d0:	417a87b3          	sub	a5,s5,s7
    24d4:	02f12023          	sw	a5,32(sp)
    24d8:	fdfe7a13          	andi	s4,t3,-33
    24dc:	ff0ff06f          	j	1ccc <_vfprintf_r+0x1af8>
    24e0:	00130c93          	addi	s9,t1,1
    24e4:	00200693          	li	a3,2
    24e8:	f1cff06f          	j	1c04 <_vfprintf_r+0x1a30>
    24ec:	00030c93          	mv	s9,t1
    24f0:	00300693          	li	a3,3
    24f4:	f10ff06f          	j	1c04 <_vfprintf_r+0x1a30>
    24f8:	02d00713          	li	a4,45
    24fc:	06e10ba3          	sb	a4,119(sp)
    2500:	02d00613          	li	a2,45
    2504:	00000313          	li	t1,0
    2508:	001c0c13          	addi	s8,s8,1
    250c:	efdfd06f          	j	408 <_vfprintf_r+0x234>
    2510:	09810713          	addi	a4,sp,152
    2514:	00000693          	li	a3,0
    2518:	08410613          	addi	a2,sp,132
    251c:	00000593          	li	a1,0
    2520:	00098513          	mv	a0,s3
    2524:	00612a23          	sw	t1,20(sp)
    2528:	01c12823          	sw	t3,16(sp)
    252c:	349000ef          	jal	ra,3074 <_wcsrtombs_r>
    2530:	01412303          	lw	t1,20(sp)
    2534:	01012e03          	lw	t3,16(sp)
    2538:	00050c93          	mv	s9,a0
    253c:	64650663          	beq	a0,t1,2b88 <_vfprintf_r+0x29b4>
    2540:	09712223          	sw	s7,132(sp)
    2544:	889ff06f          	j	1dcc <_vfprintf_r+0x1bf8>
    2548:	02d00793          	li	a5,45
    254c:	06f10ba3          	sb	a5,119(sp)
    2550:	02d00613          	li	a2,45
    2554:	a78fe06f          	j	7cc <_vfprintf_r+0x5f8>
    2558:	02012703          	lw	a4,32(sp)
    255c:	50e64063          	blt	a2,a4,2a5c <_vfprintf_r+0x2888>
    2560:	02412783          	lw	a5,36(sp)
    2564:	00060c93          	mv	s9,a2
    2568:	0017f713          	andi	a4,a5,1
    256c:	00070663          	beqz	a4,2578 <_vfprintf_r+0x23a4>
    2570:	03412783          	lw	a5,52(sp)
    2574:	00f60cb3          	add	s9,a2,a5
    2578:	02412783          	lw	a5,36(sp)
    257c:	4007f713          	andi	a4,a5,1024
    2580:	00070463          	beqz	a4,2588 <_vfprintf_r+0x23b4>
    2584:	68c04c63          	bgtz	a2,2c1c <_vfprintf_r+0x2a48>
    2588:	fffcc893          	not	a7,s9
    258c:	05012a83          	lw	s5,80(sp)
    2590:	41f8d893          	srai	a7,a7,0x1f
    2594:	011cfc33          	and	s8,s9,a7
    2598:	06700e13          	li	t3,103
    259c:	02012423          	sw	zero,40(sp)
    25a0:	02012223          	sw	zero,36(sp)
    25a4:	c79ff06f          	j	221c <_vfprintf_r+0x2048>
    25a8:	04812783          	lw	a5,72(sp)
    25ac:	04c12583          	lw	a1,76(sp)
    25b0:	03e12423          	sw	t5,40(sp)
    25b4:	40f888b3          	sub	a7,a7,a5
    25b8:	00078613          	mv	a2,a5
    25bc:	00088513          	mv	a0,a7
    25c0:	02612223          	sw	t1,36(sp)
    25c4:	03c12023          	sw	t3,32(sp)
    25c8:	00e12c23          	sw	a4,24(sp)
    25cc:	01112823          	sw	a7,16(sp)
    25d0:	0d8070ef          	jal	ra,96a8 <strncpy>
    25d4:	018bb7b3          	sltu	a5,s7,s8
    25d8:	00500613          	li	a2,5
    25dc:	00fb87b3          	add	a5,s7,a5
    25e0:	02c7f7b3          	remu	a5,a5,a2
    25e4:	01812703          	lw	a4,24(sp)
    25e8:	ccccd637          	lui	a2,0xccccd
    25ec:	ccd60e93          	addi	t4,a2,-819 # cccccccd <_stack+0xccc8cccd>
    25f0:	00174583          	lbu	a1,1(a4)
    25f4:	ccc60513          	addi	a0,a2,-820
    25f8:	01012883          	lw	a7,16(sp)
    25fc:	00b035b3          	snez	a1,a1
    2600:	00b70733          	add	a4,a4,a1
    2604:	02012e03          	lw	t3,32(sp)
    2608:	02412303          	lw	t1,36(sp)
    260c:	02812f03          	lw	t5,40(sp)
    2610:	00000613          	li	a2,0
    2614:	00500813          	li	a6,5
    2618:	000e8693          	mv	a3,t4
    261c:	40fc07b3          	sub	a5,s8,a5
    2620:	00fc35b3          	sltu	a1,s8,a5
    2624:	40bc85b3          	sub	a1,s9,a1
    2628:	02a78533          	mul	a0,a5,a0
    262c:	03d585b3          	mul	a1,a1,t4
    2630:	03d7bfb3          	mulhu	t6,a5,t4
    2634:	00a585b3          	add	a1,a1,a0
    2638:	03d78533          	mul	a0,a5,t4
    263c:	01f585b3          	add	a1,a1,t6
    2640:	01f59793          	slli	a5,a1,0x1f
    2644:	0015d593          	srli	a1,a1,0x1
    2648:	00155513          	srli	a0,a0,0x1
    264c:	00a7e7b3          	or	a5,a5,a0
    2650:	bdcff06f          	j	1a2c <_vfprintf_r+0x1858>
    2654:	00040793          	mv	a5,s0
    2658:	02412403          	lw	s0,36(sp)
    265c:	04912823          	sw	s1,80(sp)
    2660:	05512a23          	sw	s5,84(sp)
    2664:	05212c23          	sw	s2,88(sp)
    2668:	05812e23          	sw	s8,92(sp)
    266c:	000b8a93          	mv	s5,s7
    2670:	000a0613          	mv	a2,s4
    2674:	04c12903          	lw	s2,76(sp)
    2678:	04812b83          	lw	s7,72(sp)
    267c:	02812c03          	lw	s8,40(sp)
    2680:	00812d83          	lw	s11,8(sp)
    2684:	04012a03          	lw	s4,64(sp)
    2688:	00700e13          	li	t3,7
    268c:	01000693          	li	a3,16
    2690:	0001ef17          	auipc	t5,0x1e
    2694:	c4cf0f13          	addi	t5,t5,-948 # 202dc <zeroes.0>
    2698:	00030493          	mv	s1,t1
    269c:	08040463          	beqz	s0,2724 <_vfprintf_r+0x2550>
    26a0:	160c0c63          	beqz	s8,2818 <_vfprintf_r+0x2644>
    26a4:	fffc0c13          	addi	s8,s8,-1
    26a8:	0a412703          	lw	a4,164(sp)
    26ac:	01760633          	add	a2,a2,s7
    26b0:	0127a023          	sw	s2,0(a5)
    26b4:	00170713          	addi	a4,a4,1
    26b8:	0177a223          	sw	s7,4(a5)
    26bc:	0ac12423          	sw	a2,168(sp)
    26c0:	0ae12223          	sw	a4,164(sp)
    26c4:	00878793          	addi	a5,a5,8
    26c8:	14ee4e63          	blt	t3,a4,2824 <_vfprintf_r+0x2650>
    26cc:	000a4703          	lbu	a4,0(s4)
    26d0:	41548cb3          	sub	s9,s1,s5
    26d4:	01975463          	bge	a4,s9,26dc <_vfprintf_r+0x2508>
    26d8:	00070c93          	mv	s9,a4
    26dc:	03905663          	blez	s9,2708 <_vfprintf_r+0x2534>
    26e0:	0a412703          	lw	a4,164(sp)
    26e4:	01960633          	add	a2,a2,s9
    26e8:	0157a023          	sw	s5,0(a5)
    26ec:	00170713          	addi	a4,a4,1
    26f0:	0197a223          	sw	s9,4(a5)
    26f4:	0ac12423          	sw	a2,168(sp)
    26f8:	0ae12223          	sw	a4,164(sp)
    26fc:	14ee4e63          	blt	t3,a4,2858 <_vfprintf_r+0x2684>
    2700:	000a4703          	lbu	a4,0(s4)
    2704:	00878793          	addi	a5,a5,8
    2708:	fffcc593          	not	a1,s9
    270c:	41f5d593          	srai	a1,a1,0x1f
    2710:	00bcfcb3          	and	s9,s9,a1
    2714:	41970cb3          	sub	s9,a4,s9
    2718:	05904263          	bgtz	s9,275c <_vfprintf_r+0x2588>
    271c:	00ea8ab3          	add	s5,s5,a4
    2720:	f80410e3          	bnez	s0,26a0 <_vfprintf_r+0x24cc>
    2724:	f80c10e3          	bnez	s8,26a4 <_vfprintf_r+0x24d0>
    2728:	00048313          	mv	t1,s1
    272c:	05412023          	sw	s4,64(sp)
    2730:	000a8b93          	mv	s7,s5
    2734:	05012483          	lw	s1,80(sp)
    2738:	05412a83          	lw	s5,84(sp)
    273c:	05812903          	lw	s2,88(sp)
    2740:	05c12c03          	lw	s8,92(sp)
    2744:	00078413          	mv	s0,a5
    2748:	00060a13          	mv	s4,a2
    274c:	01736463          	bltu	t1,s7,2754 <_vfprintf_r+0x2580>
    2750:	bcdfe06f          	j	131c <_vfprintf_r+0x1148>
    2754:	00030b93          	mv	s7,t1
    2758:	bc5fe06f          	j	131c <_vfprintf_r+0x1148>
    275c:	0a412703          	lw	a4,164(sp)
    2760:	0001e597          	auipc	a1,0x1e
    2764:	b7c58593          	addi	a1,a1,-1156 # 202dc <zeroes.0>
    2768:	0996d263          	bge	a3,s9,27ec <_vfprintf_r+0x2618>
    276c:	00812c23          	sw	s0,24(sp)
    2770:	000c8413          	mv	s0,s9
    2774:	000f0c93          	mv	s9,t5
    2778:	00c0006f          	j	2784 <_vfprintf_r+0x25b0>
    277c:	ff040413          	addi	s0,s0,-16
    2780:	0686d063          	bge	a3,s0,27e0 <_vfprintf_r+0x260c>
    2784:	01060613          	addi	a2,a2,16
    2788:	00170713          	addi	a4,a4,1
    278c:	01e7a023          	sw	t5,0(a5)
    2790:	00d7a223          	sw	a3,4(a5)
    2794:	0ac12423          	sw	a2,168(sp)
    2798:	0ae12223          	sw	a4,164(sp)
    279c:	00878793          	addi	a5,a5,8
    27a0:	fcee5ee3          	bge	t3,a4,277c <_vfprintf_r+0x25a8>
    27a4:	0a010613          	addi	a2,sp,160
    27a8:	000d8593          	mv	a1,s11
    27ac:	00098513          	mv	a0,s3
    27b0:	2bc070ef          	jal	ra,9a6c <__sprint_r>
    27b4:	00050463          	beqz	a0,27bc <_vfprintf_r+0x25e8>
    27b8:	ecdfd06f          	j	684 <_vfprintf_r+0x4b0>
    27bc:	01000693          	li	a3,16
    27c0:	ff040413          	addi	s0,s0,-16
    27c4:	0a812603          	lw	a2,168(sp)
    27c8:	0a412703          	lw	a4,164(sp)
    27cc:	0ac10793          	addi	a5,sp,172
    27d0:	0001ef17          	auipc	t5,0x1e
    27d4:	b0cf0f13          	addi	t5,t5,-1268 # 202dc <zeroes.0>
    27d8:	00700e13          	li	t3,7
    27dc:	fa86c4e3          	blt	a3,s0,2784 <_vfprintf_r+0x25b0>
    27e0:	000c8593          	mv	a1,s9
    27e4:	00040c93          	mv	s9,s0
    27e8:	01812403          	lw	s0,24(sp)
    27ec:	00cc8633          	add	a2,s9,a2
    27f0:	00170713          	addi	a4,a4,1
    27f4:	00b7a023          	sw	a1,0(a5)
    27f8:	0197a223          	sw	s9,4(a5)
    27fc:	0ac12423          	sw	a2,168(sp)
    2800:	0ae12223          	sw	a4,164(sp)
    2804:	0aee4c63          	blt	t3,a4,28bc <_vfprintf_r+0x26e8>
    2808:	000a4703          	lbu	a4,0(s4)
    280c:	00878793          	addi	a5,a5,8
    2810:	00ea8ab3          	add	s5,s5,a4
    2814:	f0dff06f          	j	2720 <_vfprintf_r+0x254c>
    2818:	fffa0a13          	addi	s4,s4,-1
    281c:	fff40413          	addi	s0,s0,-1
    2820:	e89ff06f          	j	26a8 <_vfprintf_r+0x24d4>
    2824:	0a010613          	addi	a2,sp,160
    2828:	000d8593          	mv	a1,s11
    282c:	00098513          	mv	a0,s3
    2830:	23c070ef          	jal	ra,9a6c <__sprint_r>
    2834:	00050463          	beqz	a0,283c <_vfprintf_r+0x2668>
    2838:	e4dfd06f          	j	684 <_vfprintf_r+0x4b0>
    283c:	0a812603          	lw	a2,168(sp)
    2840:	0ac10793          	addi	a5,sp,172
    2844:	0001ef17          	auipc	t5,0x1e
    2848:	a98f0f13          	addi	t5,t5,-1384 # 202dc <zeroes.0>
    284c:	01000693          	li	a3,16
    2850:	00700e13          	li	t3,7
    2854:	e79ff06f          	j	26cc <_vfprintf_r+0x24f8>
    2858:	0a010613          	addi	a2,sp,160
    285c:	000d8593          	mv	a1,s11
    2860:	00098513          	mv	a0,s3
    2864:	208070ef          	jal	ra,9a6c <__sprint_r>
    2868:	00050463          	beqz	a0,2870 <_vfprintf_r+0x269c>
    286c:	e19fd06f          	j	684 <_vfprintf_r+0x4b0>
    2870:	000a4703          	lbu	a4,0(s4)
    2874:	0a812603          	lw	a2,168(sp)
    2878:	0ac10793          	addi	a5,sp,172
    287c:	0001ef17          	auipc	t5,0x1e
    2880:	a60f0f13          	addi	t5,t5,-1440 # 202dc <zeroes.0>
    2884:	01000693          	li	a3,16
    2888:	00700e13          	li	t3,7
    288c:	e7dff06f          	j	2708 <_vfprintf_r+0x2534>
    2890:	07714603          	lbu	a2,119(sp)
    2894:	01b12a23          	sw	s11,20(sp)
    2898:	02012423          	sw	zero,40(sp)
    289c:	02012223          	sw	zero,36(sp)
    28a0:	00012c23          	sw	zero,24(sp)
    28a4:	00012823          	sw	zero,16(sp)
    28a8:	00000c13          	li	s8,0
    28ac:	00000313          	li	t1,0
    28b0:	00061463          	bnez	a2,28b8 <_vfprintf_r+0x26e4>
    28b4:	b55fd06f          	j	408 <_vfprintf_r+0x234>
    28b8:	f51fd06f          	j	808 <_vfprintf_r+0x634>
    28bc:	0a010613          	addi	a2,sp,160
    28c0:	000d8593          	mv	a1,s11
    28c4:	00098513          	mv	a0,s3
    28c8:	1a4070ef          	jal	ra,9a6c <__sprint_r>
    28cc:	00050463          	beqz	a0,28d4 <_vfprintf_r+0x2700>
    28d0:	db5fd06f          	j	684 <_vfprintf_r+0x4b0>
    28d4:	000a4703          	lbu	a4,0(s4)
    28d8:	0a812603          	lw	a2,168(sp)
    28dc:	0ac10793          	addi	a5,sp,172
    28e0:	0001ef17          	auipc	t5,0x1e
    28e4:	9fcf0f13          	addi	t5,t5,-1540 # 202dc <zeroes.0>
    28e8:	01000693          	li	a3,16
    28ec:	00700e13          	li	t3,7
    28f0:	00ea8ab3          	add	s5,s5,a4
    28f4:	e2dff06f          	j	2720 <_vfprintf_r+0x254c>
    28f8:	00812583          	lw	a1,8(sp)
    28fc:	0a010613          	addi	a2,sp,160
    2900:	00098513          	mv	a0,s3
    2904:	04612823          	sw	t1,80(sp)
    2908:	164070ef          	jal	ra,9a6c <__sprint_r>
    290c:	00050463          	beqz	a0,2914 <_vfprintf_r+0x2740>
    2910:	d75fd06f          	j	684 <_vfprintf_r+0x4b0>
    2914:	0a812a03          	lw	s4,168(sp)
    2918:	05012303          	lw	t1,80(sp)
    291c:	0ac10413          	addi	s0,sp,172
    2920:	9d1fe06f          	j	12f0 <_vfprintf_r+0x111c>
    2924:	00900513          	li	a0,9
    2928:	91856263          	bltu	a0,s8,1a2c <_vfprintf_r+0x1858>
    292c:	980ff06f          	j	1aac <_vfprintf_r+0x18d8>
    2930:	00812583          	lw	a1,8(sp)
    2934:	0a010613          	addi	a2,sp,160
    2938:	00098513          	mv	a0,s3
    293c:	00612c23          	sw	t1,24(sp)
    2940:	12c070ef          	jal	ra,9a6c <__sprint_r>
    2944:	00050463          	beqz	a0,294c <_vfprintf_r+0x2778>
    2948:	d3dfd06f          	j	684 <_vfprintf_r+0x4b0>
    294c:	07c12683          	lw	a3,124(sp)
    2950:	0a812703          	lw	a4,168(sp)
    2954:	01812303          	lw	t1,24(sp)
    2958:	0ac10413          	addi	s0,sp,172
    295c:	a09fe06f          	j	1364 <_vfprintf_r+0x1190>
    2960:	02412783          	lw	a5,36(sp)
    2964:	0017f713          	andi	a4,a5,1
    2968:	01812783          	lw	a5,24(sp)
    296c:	00676733          	or	a4,a4,t1
    2970:	44f05463          	blez	a5,2db8 <_vfprintf_r+0x2be4>
    2974:	3e071e63          	bnez	a4,2d70 <_vfprintf_r+0x2b9c>
    2978:	01812c83          	lw	s9,24(sp)
    297c:	06600e13          	li	t3,102
    2980:	02412783          	lw	a5,36(sp)
    2984:	4007f713          	andi	a4,a5,1024
    2988:	28071c63          	bnez	a4,2c20 <_vfprintf_r+0x2a4c>
    298c:	fffcc893          	not	a7,s9
    2990:	41f8d893          	srai	a7,a7,0x1f
    2994:	05012a83          	lw	s5,80(sp)
    2998:	011cfc33          	and	s8,s9,a7
    299c:	c01ff06f          	j	259c <_vfprintf_r+0x23c8>
    29a0:	00812583          	lw	a1,8(sp)
    29a4:	0a010613          	addi	a2,sp,160
    29a8:	00098513          	mv	a0,s3
    29ac:	0c0070ef          	jal	ra,9a6c <__sprint_r>
    29b0:	00050463          	beqz	a0,29b8 <_vfprintf_r+0x27e4>
    29b4:	cd1fd06f          	j	684 <_vfprintf_r+0x4b0>
    29b8:	07c12683          	lw	a3,124(sp)
    29bc:	02012783          	lw	a5,32(sp)
    29c0:	0a812703          	lw	a4,168(sp)
    29c4:	0ac10413          	addi	s0,sp,172
    29c8:	40d786b3          	sub	a3,a5,a3
    29cc:	9d9fe06f          	j	13a4 <_vfprintf_r+0x11d0>
    29d0:	00012823          	sw	zero,16(sp)
    29d4:	0ec10b93          	addi	s7,sp,236
    29d8:	c20ff06f          	j	1df8 <_vfprintf_r+0x1c24>
    29dc:	ff000613          	li	a2,-16
    29e0:	40b00cb3          	neg	s9,a1
    29e4:	0001ea17          	auipc	s4,0x1e
    29e8:	8f8a0a13          	addi	s4,s4,-1800 # 202dc <zeroes.0>
    29ec:	01000d93          	li	s11,16
    29f0:	00700313          	li	t1,7
    29f4:	00c5c863          	blt	a1,a2,2a04 <_vfprintf_r+0x2830>
    29f8:	1440006f          	j	2b3c <_vfprintf_r+0x2968>
    29fc:	ff0c8c93          	addi	s9,s9,-16
    2a00:	139dde63          	bge	s11,s9,2b3c <_vfprintf_r+0x2968>
    2a04:	01070713          	addi	a4,a4,16
    2a08:	00168693          	addi	a3,a3,1
    2a0c:	01442023          	sw	s4,0(s0)
    2a10:	01b42223          	sw	s11,4(s0)
    2a14:	0ae12423          	sw	a4,168(sp)
    2a18:	0ad12223          	sw	a3,164(sp)
    2a1c:	00840413          	addi	s0,s0,8
    2a20:	fcd35ee3          	bge	t1,a3,29fc <_vfprintf_r+0x2828>
    2a24:	00812583          	lw	a1,8(sp)
    2a28:	0a010613          	addi	a2,sp,160
    2a2c:	00098513          	mv	a0,s3
    2a30:	03c070ef          	jal	ra,9a6c <__sprint_r>
    2a34:	00050463          	beqz	a0,2a3c <_vfprintf_r+0x2868>
    2a38:	c4dfd06f          	j	684 <_vfprintf_r+0x4b0>
    2a3c:	0a812703          	lw	a4,168(sp)
    2a40:	0a412683          	lw	a3,164(sp)
    2a44:	0ac10413          	addi	s0,sp,172
    2a48:	00700313          	li	t1,7
    2a4c:	fb1ff06f          	j	29fc <_vfprintf_r+0x2828>
    2a50:	019b8c33          	add	s8,s7,s9
    2a54:	04700a13          	li	s4,71
    2a58:	a1cff06f          	j	1c74 <_vfprintf_r+0x1aa0>
    2a5c:	02012783          	lw	a5,32(sp)
    2a60:	03412703          	lw	a4,52(sp)
    2a64:	06700e13          	li	t3,103
    2a68:	00e78cb3          	add	s9,a5,a4
    2a6c:	01812783          	lw	a5,24(sp)
    2a70:	f0f048e3          	bgtz	a5,2980 <_vfprintf_r+0x27ac>
    2a74:	40fc86b3          	sub	a3,s9,a5
    2a78:	00168c93          	addi	s9,a3,1
    2a7c:	fffcc893          	not	a7,s9
    2a80:	41f8d893          	srai	a7,a7,0x1f
    2a84:	05012a83          	lw	s5,80(sp)
    2a88:	011cfc33          	and	s8,s9,a7
    2a8c:	b11ff06f          	j	259c <_vfprintf_r+0x23c8>
    2a90:	00812783          	lw	a5,8(sp)
    2a94:	0647a783          	lw	a5,100(a5)
    2a98:	0017f793          	andi	a5,a5,1
    2a9c:	02079063          	bnez	a5,2abc <_vfprintf_r+0x28e8>
    2aa0:	00812783          	lw	a5,8(sp)
    2aa4:	00c7d783          	lhu	a5,12(a5)
    2aa8:	2007f793          	andi	a5,a5,512
    2aac:	00079863          	bnez	a5,2abc <_vfprintf_r+0x28e8>
    2ab0:	00812783          	lw	a5,8(sp)
    2ab4:	0587a503          	lw	a0,88(a5)
    2ab8:	35d030ef          	jal	ra,6614 <__retarget_lock_release_recursive>
    2abc:	fff00793          	li	a5,-1
    2ac0:	00f12623          	sw	a5,12(sp)
    2ac4:	bf9fd06f          	j	6bc <_vfprintf_r+0x4e8>
    2ac8:	000a8d93          	mv	s11,s5
    2acc:	9c8fe06f          	j	c94 <_vfprintf_r+0xac0>
    2ad0:	01812783          	lw	a5,24(sp)
    2ad4:	00f84583          	lbu	a1,15(a6)
    2ad8:	000a0693          	mv	a3,s4
    2adc:	08f12c23          	sw	a5,152(sp)
    2ae0:	fffa4603          	lbu	a2,-1(s4)
    2ae4:	02b61063          	bne	a2,a1,2b04 <_vfprintf_r+0x2930>
    2ae8:	03000513          	li	a0,48
    2aec:	fea68fa3          	sb	a0,-1(a3)
    2af0:	09812683          	lw	a3,152(sp)
    2af4:	fff68793          	addi	a5,a3,-1
    2af8:	08f12c23          	sw	a5,152(sp)
    2afc:	fff6c603          	lbu	a2,-1(a3)
    2b00:	fec586e3          	beq	a1,a2,2aec <_vfprintf_r+0x2918>
    2b04:	00160593          	addi	a1,a2,1
    2b08:	03900513          	li	a0,57
    2b0c:	0ff5f593          	zext.b	a1,a1
    2b10:	02a60063          	beq	a2,a0,2b30 <_vfprintf_r+0x295c>
    2b14:	feb68fa3          	sb	a1,-1(a3)
    2b18:	000a0a93          	mv	s5,s4
    2b1c:	9b5ff06f          	j	24d0 <_vfprintf_r+0x22fc>
    2b20:	00030463          	beqz	t1,2b28 <_vfprintf_r+0x2954>
    2b24:	844ff06f          	j	1b68 <_vfprintf_r+0x1994>
    2b28:	00100313          	li	t1,1
    2b2c:	83cff06f          	j	1b68 <_vfprintf_r+0x1994>
    2b30:	00a84583          	lbu	a1,10(a6)
    2b34:	feb68fa3          	sb	a1,-1(a3)
    2b38:	fe1ff06f          	j	2b18 <_vfprintf_r+0x2944>
    2b3c:	01970733          	add	a4,a4,s9
    2b40:	00168693          	addi	a3,a3,1
    2b44:	01442023          	sw	s4,0(s0)
    2b48:	01942223          	sw	s9,4(s0)
    2b4c:	0ae12423          	sw	a4,168(sp)
    2b50:	0ad12223          	sw	a3,164(sp)
    2b54:	00700613          	li	a2,7
    2b58:	00d64463          	blt	a2,a3,2b60 <_vfprintf_r+0x298c>
    2b5c:	b45fe06f          	j	16a0 <_vfprintf_r+0x14cc>
    2b60:	00812583          	lw	a1,8(sp)
    2b64:	0a010613          	addi	a2,sp,160
    2b68:	00098513          	mv	a0,s3
    2b6c:	701060ef          	jal	ra,9a6c <__sprint_r>
    2b70:	00050463          	beqz	a0,2b78 <_vfprintf_r+0x29a4>
    2b74:	b11fd06f          	j	684 <_vfprintf_r+0x4b0>
    2b78:	0a812703          	lw	a4,168(sp)
    2b7c:	0a412683          	lw	a3,164(sp)
    2b80:	0ac10413          	addi	s0,sp,172
    2b84:	bfcff06f          	j	1f80 <_vfprintf_r+0x1dac>
    2b88:	00812703          	lw	a4,8(sp)
    2b8c:	00c71783          	lh	a5,12(a4)
    2b90:	0407e793          	ori	a5,a5,64
    2b94:	00f71623          	sh	a5,12(a4)
    2b98:	b09fd06f          	j	6a0 <_vfprintf_r+0x4cc>
    2b9c:	08a10713          	addi	a4,sp,138
    2ba0:	00069863          	bnez	a3,2bb0 <_vfprintf_r+0x29dc>
    2ba4:	03000713          	li	a4,48
    2ba8:	08e10523          	sb	a4,138(sp)
    2bac:	08b10713          	addi	a4,sp,139
    2bb0:	15010793          	addi	a5,sp,336
    2bb4:	40f706b3          	sub	a3,a4,a5
    2bb8:	03030313          	addi	t1,t1,48
    2bbc:	0c968793          	addi	a5,a3,201
    2bc0:	00670023          	sb	t1,0(a4)
    2bc4:	04f12223          	sw	a5,68(sp)
    2bc8:	e14ff06f          	j	21dc <_vfprintf_r+0x2008>
    2bcc:	00098793          	mv	a5,s3
    2bd0:	00912c23          	sw	s1,24(sp)
    2bd4:	00040813          	mv	a6,s0
    2bd8:	000c8993          	mv	s3,s9
    2bdc:	000b8413          	mv	s0,s7
    2be0:	02812e03          	lw	t3,40(sp)
    2be4:	000d8b93          	mv	s7,s11
    2be8:	05c12303          	lw	t1,92(sp)
    2bec:	000a0d93          	mv	s11,s4
    2bf0:	02012483          	lw	s1,32(sp)
    2bf4:	00090a13          	mv	s4,s2
    2bf8:	00078c93          	mv	s9,a5
    2bfc:	05812903          	lw	s2,88(sp)
    2c00:	839ff06f          	j	2438 <_vfprintf_r+0x2264>
    2c04:	02412783          	lw	a5,36(sp)
    2c08:	0017f713          	andi	a4,a5,1
    2c0c:	de070663          	beqz	a4,21f8 <_vfprintf_r+0x2024>
    2c10:	de0ff06f          	j	21f0 <_vfprintf_r+0x201c>
    2c14:	00600313          	li	t1,6
    2c18:	f51fe06f          	j	1b68 <_vfprintf_r+0x1994>
    2c1c:	06700e13          	li	t3,103
    2c20:	04012683          	lw	a3,64(sp)
    2c24:	0ff00613          	li	a2,255
    2c28:	0006c703          	lbu	a4,0(a3)
    2c2c:	1ec70063          	beq	a4,a2,2e0c <_vfprintf_r+0x2c38>
    2c30:	01812783          	lw	a5,24(sp)
    2c34:	00000513          	li	a0,0
    2c38:	00000593          	li	a1,0
    2c3c:	00f75e63          	bge	a4,a5,2c58 <_vfprintf_r+0x2a84>
    2c40:	40e787b3          	sub	a5,a5,a4
    2c44:	0016c703          	lbu	a4,1(a3)
    2c48:	04070663          	beqz	a4,2c94 <_vfprintf_r+0x2ac0>
    2c4c:	00158593          	addi	a1,a1,1
    2c50:	00168693          	addi	a3,a3,1
    2c54:	fec714e3          	bne	a4,a2,2c3c <_vfprintf_r+0x2a68>
    2c58:	04d12023          	sw	a3,64(sp)
    2c5c:	00f12c23          	sw	a5,24(sp)
    2c60:	02b12223          	sw	a1,36(sp)
    2c64:	02a12423          	sw	a0,40(sp)
    2c68:	02812783          	lw	a5,40(sp)
    2c6c:	02412703          	lw	a4,36(sp)
    2c70:	05012a83          	lw	s5,80(sp)
    2c74:	00e78733          	add	a4,a5,a4
    2c78:	04812783          	lw	a5,72(sp)
    2c7c:	02f70733          	mul	a4,a4,a5
    2c80:	01970cb3          	add	s9,a4,s9
    2c84:	fffcc893          	not	a7,s9
    2c88:	41f8d893          	srai	a7,a7,0x1f
    2c8c:	011cfc33          	and	s8,s9,a7
    2c90:	d8cff06f          	j	221c <_vfprintf_r+0x2048>
    2c94:	0006c703          	lbu	a4,0(a3)
    2c98:	00150513          	addi	a0,a0,1
    2c9c:	fb9ff06f          	j	2c54 <_vfprintf_r+0x2a80>
    2ca0:	02c12703          	lw	a4,44(sp)
    2ca4:	000d8593          	mv	a1,s11
    2ca8:	07c10613          	addi	a2,sp,124
    2cac:	00070513          	mv	a0,a4
    2cb0:	02612023          	sw	t1,32(sp)
    2cb4:	01c12c23          	sw	t3,24(sp)
    2cb8:	214060ef          	jal	ra,8ecc <frexp>
    2cbc:	0001d717          	auipc	a4,0x1d
    2cc0:	35c70713          	addi	a4,a4,860 # 20018 <__DTOR_END__+0x8>
    2cc4:	00072603          	lw	a2,0(a4)
    2cc8:	00472683          	lw	a3,4(a4)
    2ccc:	5010b0ef          	jal	ra,e9cc <__muldf3>
    2cd0:	00000613          	li	a2,0
    2cd4:	00000693          	li	a3,0
    2cd8:	00050c93          	mv	s9,a0
    2cdc:	00058d93          	mv	s11,a1
    2ce0:	25d0b0ef          	jal	ra,e73c <__eqdf2>
    2ce4:	01812e03          	lw	t3,24(sp)
    2ce8:	02012303          	lw	t1,32(sp)
    2cec:	0001d817          	auipc	a6,0x1d
    2cf0:	3b880813          	addi	a6,a6,952 # 200a4 <environ+0x18>
    2cf4:	e4051463          	bnez	a0,233c <_vfprintf_r+0x2168>
    2cf8:	e24ff06f          	j	231c <_vfprintf_r+0x2148>
    2cfc:	00040313          	mv	t1,s0
    2d00:	01012483          	lw	s1,16(sp)
    2d04:	000b8413          	mv	s0,s7
    2d08:	01412e03          	lw	t3,20(sp)
    2d0c:	000c0b93          	mv	s7,s8
    2d10:	00030c93          	mv	s9,t1
    2d14:	8b8ff06f          	j	1dcc <_vfprintf_r+0x1bf8>
    2d18:	03012783          	lw	a5,48(sp)
    2d1c:	0607c463          	bltz	a5,2d84 <_vfprintf_r+0x2bb0>
    2d20:	07714603          	lbu	a2,119(sp)
    2d24:	04700713          	li	a4,71
    2d28:	0001db97          	auipc	s7,0x1d
    2d2c:	374b8b93          	addi	s7,s7,884 # 2009c <environ+0x10>
    2d30:	01c74463          	blt	a4,t3,2d38 <_vfprintf_r+0x2b64>
    2d34:	ab1fd06f          	j	7e4 <_vfprintf_r+0x610>
    2d38:	0001db97          	auipc	s7,0x1d
    2d3c:	368b8b93          	addi	s7,s7,872 # 200a0 <environ+0x14>
    2d40:	aa5fd06f          	j	7e4 <_vfprintf_r+0x610>
    2d44:	07714603          	lbu	a2,119(sp)
    2d48:	01b12a23          	sw	s11,20(sp)
    2d4c:	02012423          	sw	zero,40(sp)
    2d50:	02012223          	sw	zero,36(sp)
    2d54:	00030c13          	mv	s8,t1
    2d58:	00030c93          	mv	s9,t1
    2d5c:	07300e13          	li	t3,115
    2d60:	00000313          	li	t1,0
    2d64:	00061463          	bnez	a2,2d6c <_vfprintf_r+0x2b98>
    2d68:	ea0fd06f          	j	408 <_vfprintf_r+0x234>
    2d6c:	a9dfd06f          	j	808 <_vfprintf_r+0x634>
    2d70:	03412703          	lw	a4,52(sp)
    2d74:	06600e13          	li	t3,102
    2d78:	00e786b3          	add	a3,a5,a4
    2d7c:	00668cb3          	add	s9,a3,t1
    2d80:	c01ff06f          	j	2980 <_vfprintf_r+0x27ac>
    2d84:	02d00793          	li	a5,45
    2d88:	06f10ba3          	sb	a5,119(sp)
    2d8c:	02d00613          	li	a2,45
    2d90:	f95ff06f          	j	2d24 <_vfprintf_r+0x2b50>
    2d94:	01412783          	lw	a5,20(sp)
    2d98:	0007aa03          	lw	s4,0(a5)
    2d9c:	00478793          	addi	a5,a5,4
    2da0:	000a5463          	bgez	s4,2da8 <_vfprintf_r+0x2bd4>
    2da4:	fff00a13          	li	s4,-1
    2da8:	0014ce03          	lbu	t3,1(s1)
    2dac:	00f12a23          	sw	a5,20(sp)
    2db0:	00070493          	mv	s1,a4
    2db4:	dc8fd06f          	j	37c <_vfprintf_r+0x1a8>
    2db8:	00071c63          	bnez	a4,2dd0 <_vfprintf_r+0x2bfc>
    2dbc:	05012a83          	lw	s5,80(sp)
    2dc0:	00100c13          	li	s8,1
    2dc4:	06600e13          	li	t3,102
    2dc8:	00100c93          	li	s9,1
    2dcc:	fd0ff06f          	j	259c <_vfprintf_r+0x23c8>
    2dd0:	03412783          	lw	a5,52(sp)
    2dd4:	05012a83          	lw	s5,80(sp)
    2dd8:	06600e13          	li	t3,102
    2ddc:	00178693          	addi	a3,a5,1
    2de0:	00668cb3          	add	s9,a3,t1
    2de4:	fffcc893          	not	a7,s9
    2de8:	41f8d893          	srai	a7,a7,0x1f
    2dec:	011cfc33          	and	s8,s9,a7
    2df0:	facff06f          	j	259c <_vfprintf_r+0x23c8>
    2df4:	00200793          	li	a5,2
    2df8:	04f12223          	sw	a5,68(sp)
    2dfc:	be0ff06f          	j	21dc <_vfprintf_r+0x2008>
    2e00:	07000713          	li	a4,112
    2e04:	00100693          	li	a3,1
    2e08:	b3cff06f          	j	2144 <_vfprintf_r+0x1f70>
    2e0c:	02012423          	sw	zero,40(sp)
    2e10:	02012223          	sw	zero,36(sp)
    2e14:	e55ff06f          	j	2c68 <_vfprintf_r+0x2a94>
    2e18:	00812703          	lw	a4,8(sp)
    2e1c:	01012f03          	lw	t5,16(sp)
    2e20:	00c75783          	lhu	a5,12(a4)
    2e24:	0407e793          	ori	a5,a5,64
    2e28:	00f71623          	sh	a5,12(a4)
    2e2c:	85dfd06f          	j	688 <_vfprintf_r+0x4b4>

00002e30 <vfprintf>:
    2e30:	00060693          	mv	a3,a2
    2e34:	00058613          	mv	a2,a1
    2e38:	00050593          	mv	a1,a0
    2e3c:	0001d517          	auipc	a0,0x1d
    2e40:	24452503          	lw	a0,580(a0) # 20080 <_impure_ptr>
    2e44:	b90fd06f          	j	1d4 <_vfprintf_r>

00002e48 <__sbprintf>:
    2e48:	00c59783          	lh	a5,12(a1)
    2e4c:	00e5d703          	lhu	a4,14(a1)
    2e50:	b7010113          	addi	sp,sp,-1168
    2e54:	ffd7f793          	andi	a5,a5,-3
    2e58:	01079793          	slli	a5,a5,0x10
    2e5c:	0645a883          	lw	a7,100(a1)
    2e60:	01c5a803          	lw	a6,28(a1)
    2e64:	48812423          	sw	s0,1160(sp)
    2e68:	01071713          	slli	a4,a4,0x10
    2e6c:	00058413          	mv	s0,a1
    2e70:	0107d793          	srli	a5,a5,0x10
    2e74:	0245a583          	lw	a1,36(a1)
    2e78:	00e7e7b3          	or	a5,a5,a4
    2e7c:	49212023          	sw	s2,1152(sp)
    2e80:	40000713          	li	a4,1024
    2e84:	00050913          	mv	s2,a0
    2e88:	00f12a23          	sw	a5,20(sp)
    2e8c:	06010513          	addi	a0,sp,96
    2e90:	07010793          	addi	a5,sp,112
    2e94:	48112623          	sw	ra,1164(sp)
    2e98:	48912223          	sw	s1,1156(sp)
    2e9c:	47312e23          	sw	s3,1148(sp)
    2ea0:	00060493          	mv	s1,a2
    2ea4:	00068993          	mv	s3,a3
    2ea8:	07112623          	sw	a7,108(sp)
    2eac:	03012223          	sw	a6,36(sp)
    2eb0:	02b12623          	sw	a1,44(sp)
    2eb4:	00f12423          	sw	a5,8(sp)
    2eb8:	00f12c23          	sw	a5,24(sp)
    2ebc:	00e12823          	sw	a4,16(sp)
    2ec0:	00e12e23          	sw	a4,28(sp)
    2ec4:	02012023          	sw	zero,32(sp)
    2ec8:	724030ef          	jal	ra,65ec <__retarget_lock_init_recursive>
    2ecc:	00048613          	mv	a2,s1
    2ed0:	00098693          	mv	a3,s3
    2ed4:	00810593          	addi	a1,sp,8
    2ed8:	00090513          	mv	a0,s2
    2edc:	af8fd0ef          	jal	ra,1d4 <_vfprintf_r>
    2ee0:	00050493          	mv	s1,a0
    2ee4:	04055263          	bgez	a0,2f28 <__sbprintf+0xe0>
    2ee8:	01415783          	lhu	a5,20(sp)
    2eec:	0407f793          	andi	a5,a5,64
    2ef0:	00078863          	beqz	a5,2f00 <__sbprintf+0xb8>
    2ef4:	00c45783          	lhu	a5,12(s0)
    2ef8:	0407e793          	ori	a5,a5,64
    2efc:	00f41623          	sh	a5,12(s0)
    2f00:	06012503          	lw	a0,96(sp)
    2f04:	6f0030ef          	jal	ra,65f4 <__retarget_lock_close_recursive>
    2f08:	48c12083          	lw	ra,1164(sp)
    2f0c:	48812403          	lw	s0,1160(sp)
    2f10:	48012903          	lw	s2,1152(sp)
    2f14:	47c12983          	lw	s3,1148(sp)
    2f18:	00048513          	mv	a0,s1
    2f1c:	48412483          	lw	s1,1156(sp)
    2f20:	49010113          	addi	sp,sp,1168
    2f24:	00008067          	ret
    2f28:	00810593          	addi	a1,sp,8
    2f2c:	00090513          	mv	a0,s2
    2f30:	5c5010ef          	jal	ra,4cf4 <_fflush_r>
    2f34:	fa050ae3          	beqz	a0,2ee8 <__sbprintf+0xa0>
    2f38:	fff00493          	li	s1,-1
    2f3c:	fadff06f          	j	2ee8 <__sbprintf+0xa0>

00002f40 <_wcrtomb_r>:
    2f40:	fe010113          	addi	sp,sp,-32
    2f44:	00812c23          	sw	s0,24(sp)
    2f48:	00912a23          	sw	s1,20(sp)
    2f4c:	00112e23          	sw	ra,28(sp)
    2f50:	00050493          	mv	s1,a0
    2f54:	11450413          	addi	s0,a0,276
    2f58:	00068463          	beqz	a3,2f60 <_wcrtomb_r+0x20>
    2f5c:	00068413          	mv	s0,a3
    2f60:	0001e797          	auipc	a5,0x1e
    2f64:	3e07a783          	lw	a5,992(a5) # 21340 <__global_locale+0xe0>
    2f68:	00040693          	mv	a3,s0
    2f6c:	02058463          	beqz	a1,2f94 <_wcrtomb_r+0x54>
    2f70:	00048513          	mv	a0,s1
    2f74:	000780e7          	jalr	a5
    2f78:	fff00793          	li	a5,-1
    2f7c:	02f50863          	beq	a0,a5,2fac <_wcrtomb_r+0x6c>
    2f80:	01c12083          	lw	ra,28(sp)
    2f84:	01812403          	lw	s0,24(sp)
    2f88:	01412483          	lw	s1,20(sp)
    2f8c:	02010113          	addi	sp,sp,32
    2f90:	00008067          	ret
    2f94:	00000613          	li	a2,0
    2f98:	00410593          	addi	a1,sp,4
    2f9c:	00048513          	mv	a0,s1
    2fa0:	000780e7          	jalr	a5
    2fa4:	fff00793          	li	a5,-1
    2fa8:	fcf51ce3          	bne	a0,a5,2f80 <_wcrtomb_r+0x40>
    2fac:	00042023          	sw	zero,0(s0)
    2fb0:	01c12083          	lw	ra,28(sp)
    2fb4:	01812403          	lw	s0,24(sp)
    2fb8:	08a00793          	li	a5,138
    2fbc:	00f4a023          	sw	a5,0(s1)
    2fc0:	01412483          	lw	s1,20(sp)
    2fc4:	02010113          	addi	sp,sp,32
    2fc8:	00008067          	ret

00002fcc <wcrtomb>:
    2fcc:	fe010113          	addi	sp,sp,-32
    2fd0:	00812c23          	sw	s0,24(sp)
    2fd4:	00912a23          	sw	s1,20(sp)
    2fd8:	00060413          	mv	s0,a2
    2fdc:	00112e23          	sw	ra,28(sp)
    2fe0:	00058613          	mv	a2,a1
    2fe4:	0001d497          	auipc	s1,0x1d
    2fe8:	09c4a483          	lw	s1,156(s1) # 20080 <_impure_ptr>
    2fec:	02040e63          	beqz	s0,3028 <wcrtomb+0x5c>
    2ff0:	0001e797          	auipc	a5,0x1e
    2ff4:	3507a783          	lw	a5,848(a5) # 21340 <__global_locale+0xe0>
    2ff8:	00040693          	mv	a3,s0
    2ffc:	04050063          	beqz	a0,303c <wcrtomb+0x70>
    3000:	00050593          	mv	a1,a0
    3004:	00048513          	mv	a0,s1
    3008:	000780e7          	jalr	a5
    300c:	fff00793          	li	a5,-1
    3010:	04f50263          	beq	a0,a5,3054 <wcrtomb+0x88>
    3014:	01c12083          	lw	ra,28(sp)
    3018:	01812403          	lw	s0,24(sp)
    301c:	01412483          	lw	s1,20(sp)
    3020:	02010113          	addi	sp,sp,32
    3024:	00008067          	ret
    3028:	11448413          	addi	s0,s1,276
    302c:	0001e797          	auipc	a5,0x1e
    3030:	3147a783          	lw	a5,788(a5) # 21340 <__global_locale+0xe0>
    3034:	00040693          	mv	a3,s0
    3038:	fc0514e3          	bnez	a0,3000 <wcrtomb+0x34>
    303c:	00000613          	li	a2,0
    3040:	00410593          	addi	a1,sp,4
    3044:	00048513          	mv	a0,s1
    3048:	000780e7          	jalr	a5
    304c:	fff00793          	li	a5,-1
    3050:	fcf512e3          	bne	a0,a5,3014 <wcrtomb+0x48>
    3054:	00042023          	sw	zero,0(s0)
    3058:	01c12083          	lw	ra,28(sp)
    305c:	01812403          	lw	s0,24(sp)
    3060:	08a00793          	li	a5,138
    3064:	00f4a023          	sw	a5,0(s1)
    3068:	01412483          	lw	s1,20(sp)
    306c:	02010113          	addi	sp,sp,32
    3070:	00008067          	ret

00003074 <_wcsrtombs_r>:
    3074:	00070793          	mv	a5,a4
    3078:	00068713          	mv	a4,a3
    307c:	fff00693          	li	a3,-1
    3080:	4900806f          	j	b510 <_wcsnrtombs_r>

00003084 <wcsrtombs>:
    3084:	00060713          	mv	a4,a2
    3088:	00068793          	mv	a5,a3
    308c:	00058613          	mv	a2,a1
    3090:	fff00693          	li	a3,-1
    3094:	00050593          	mv	a1,a0
    3098:	0001d517          	auipc	a0,0x1d
    309c:	fe852503          	lw	a0,-24(a0) # 20080 <_impure_ptr>
    30a0:	4700806f          	j	b510 <_wcsnrtombs_r>

000030a4 <__swsetup_r>:
    30a4:	ff010113          	addi	sp,sp,-16
    30a8:	00812423          	sw	s0,8(sp)
    30ac:	00912223          	sw	s1,4(sp)
    30b0:	00112623          	sw	ra,12(sp)
    30b4:	0001d797          	auipc	a5,0x1d
    30b8:	fcc7a783          	lw	a5,-52(a5) # 20080 <_impure_ptr>
    30bc:	00050493          	mv	s1,a0
    30c0:	00058413          	mv	s0,a1
    30c4:	00078663          	beqz	a5,30d0 <__swsetup_r+0x2c>
    30c8:	0387a703          	lw	a4,56(a5)
    30cc:	08070063          	beqz	a4,314c <__swsetup_r+0xa8>
    30d0:	00c41783          	lh	a5,12(s0)
    30d4:	0087f713          	andi	a4,a5,8
    30d8:	08070463          	beqz	a4,3160 <__swsetup_r+0xbc>
    30dc:	01042703          	lw	a4,16(s0)
    30e0:	0a070063          	beqz	a4,3180 <__swsetup_r+0xdc>
    30e4:	0017f693          	andi	a3,a5,1
    30e8:	02068863          	beqz	a3,3118 <__swsetup_r+0x74>
    30ec:	01442683          	lw	a3,20(s0)
    30f0:	00042423          	sw	zero,8(s0)
    30f4:	00000513          	li	a0,0
    30f8:	40d006b3          	neg	a3,a3
    30fc:	00d42c23          	sw	a3,24(s0)
    3100:	02070a63          	beqz	a4,3134 <__swsetup_r+0x90>
    3104:	00c12083          	lw	ra,12(sp)
    3108:	00812403          	lw	s0,8(sp)
    310c:	00412483          	lw	s1,4(sp)
    3110:	01010113          	addi	sp,sp,16
    3114:	00008067          	ret
    3118:	0027f693          	andi	a3,a5,2
    311c:	00000613          	li	a2,0
    3120:	00069463          	bnez	a3,3128 <__swsetup_r+0x84>
    3124:	01442603          	lw	a2,20(s0)
    3128:	00c42423          	sw	a2,8(s0)
    312c:	00000513          	li	a0,0
    3130:	fc071ae3          	bnez	a4,3104 <__swsetup_r+0x60>
    3134:	0807f713          	andi	a4,a5,128
    3138:	fc0706e3          	beqz	a4,3104 <__swsetup_r+0x60>
    313c:	0407e793          	ori	a5,a5,64
    3140:	00f41623          	sh	a5,12(s0)
    3144:	fff00513          	li	a0,-1
    3148:	fbdff06f          	j	3104 <__swsetup_r+0x60>
    314c:	00078513          	mv	a0,a5
    3150:	65d010ef          	jal	ra,4fac <__sinit>
    3154:	00c41783          	lh	a5,12(s0)
    3158:	0087f713          	andi	a4,a5,8
    315c:	f80710e3          	bnez	a4,30dc <__swsetup_r+0x38>
    3160:	0107f713          	andi	a4,a5,16
    3164:	06070a63          	beqz	a4,31d8 <__swsetup_r+0x134>
    3168:	0047f713          	andi	a4,a5,4
    316c:	02071c63          	bnez	a4,31a4 <__swsetup_r+0x100>
    3170:	01042703          	lw	a4,16(s0)
    3174:	0087e793          	ori	a5,a5,8
    3178:	00f41623          	sh	a5,12(s0)
    317c:	f60714e3          	bnez	a4,30e4 <__swsetup_r+0x40>
    3180:	2807f693          	andi	a3,a5,640
    3184:	20000613          	li	a2,512
    3188:	f4c68ee3          	beq	a3,a2,30e4 <__swsetup_r+0x40>
    318c:	00040593          	mv	a1,s0
    3190:	00048513          	mv	a0,s1
    3194:	484030ef          	jal	ra,6618 <__smakebuf_r>
    3198:	00c41783          	lh	a5,12(s0)
    319c:	01042703          	lw	a4,16(s0)
    31a0:	f45ff06f          	j	30e4 <__swsetup_r+0x40>
    31a4:	03042583          	lw	a1,48(s0)
    31a8:	00058e63          	beqz	a1,31c4 <__swsetup_r+0x120>
    31ac:	04040713          	addi	a4,s0,64
    31b0:	00e58863          	beq	a1,a4,31c0 <__swsetup_r+0x11c>
    31b4:	00048513          	mv	a0,s1
    31b8:	2d0020ef          	jal	ra,5488 <_free_r>
    31bc:	00c41783          	lh	a5,12(s0)
    31c0:	02042823          	sw	zero,48(s0)
    31c4:	01042703          	lw	a4,16(s0)
    31c8:	fdb7f793          	andi	a5,a5,-37
    31cc:	00042223          	sw	zero,4(s0)
    31d0:	00e42023          	sw	a4,0(s0)
    31d4:	fa1ff06f          	j	3174 <__swsetup_r+0xd0>
    31d8:	00900713          	li	a4,9
    31dc:	00e4a023          	sw	a4,0(s1)
    31e0:	0407e793          	ori	a5,a5,64
    31e4:	f5dff06f          	j	3140 <__swsetup_r+0x9c>

000031e8 <quorem>:
    31e8:	fe010113          	addi	sp,sp,-32
    31ec:	00912a23          	sw	s1,20(sp)
    31f0:	01052783          	lw	a5,16(a0)
    31f4:	0105a483          	lw	s1,16(a1)
    31f8:	00112e23          	sw	ra,28(sp)
    31fc:	00812c23          	sw	s0,24(sp)
    3200:	01212823          	sw	s2,16(sp)
    3204:	01312623          	sw	s3,12(sp)
    3208:	01412423          	sw	s4,8(sp)
    320c:	01512223          	sw	s5,4(sp)
    3210:	1a97c663          	blt	a5,s1,33bc <quorem+0x1d4>
    3214:	fff48493          	addi	s1,s1,-1
    3218:	00249313          	slli	t1,s1,0x2
    321c:	01458413          	addi	s0,a1,20
    3220:	006409b3          	add	s3,s0,t1
    3224:	01450a13          	addi	s4,a0,20
    3228:	0009a783          	lw	a5,0(s3)
    322c:	006a0333          	add	t1,s4,t1
    3230:	00032703          	lw	a4,0(t1)
    3234:	00178793          	addi	a5,a5,1
    3238:	00050a93          	mv	s5,a0
    323c:	02f75933          	divu	s2,a4,a5
    3240:	0af76a63          	bltu	a4,a5,32f4 <quorem+0x10c>
    3244:	00010537          	lui	a0,0x10
    3248:	00040893          	mv	a7,s0
    324c:	000a0813          	mv	a6,s4
    3250:	00000e93          	li	t4,0
    3254:	00000693          	li	a3,0
    3258:	fff50513          	addi	a0,a0,-1 # ffff <__clzsi2+0x3>
    325c:	0008a703          	lw	a4,0(a7)
    3260:	00082e03          	lw	t3,0(a6)
    3264:	00480813          	addi	a6,a6,4
    3268:	00a77633          	and	a2,a4,a0
    326c:	01075713          	srli	a4,a4,0x10
    3270:	00ae77b3          	and	a5,t3,a0
    3274:	010e5e13          	srli	t3,t3,0x10
    3278:	00488893          	addi	a7,a7,4
    327c:	03260633          	mul	a2,a2,s2
    3280:	03270733          	mul	a4,a4,s2
    3284:	01d60633          	add	a2,a2,t4
    3288:	00a67eb3          	and	t4,a2,a0
    328c:	41d787b3          	sub	a5,a5,t4
    3290:	01065613          	srli	a2,a2,0x10
    3294:	00d787b3          	add	a5,a5,a3
    3298:	4107d693          	srai	a3,a5,0x10
    329c:	00a7f7b3          	and	a5,a5,a0
    32a0:	00c70733          	add	a4,a4,a2
    32a4:	00a77633          	and	a2,a4,a0
    32a8:	40c686b3          	sub	a3,a3,a2
    32ac:	01c686b3          	add	a3,a3,t3
    32b0:	01069613          	slli	a2,a3,0x10
    32b4:	00c7e7b3          	or	a5,a5,a2
    32b8:	fef82e23          	sw	a5,-4(a6)
    32bc:	01075e93          	srli	t4,a4,0x10
    32c0:	4106d693          	srai	a3,a3,0x10
    32c4:	f919fce3          	bgeu	s3,a7,325c <quorem+0x74>
    32c8:	00032783          	lw	a5,0(t1)
    32cc:	02079463          	bnez	a5,32f4 <quorem+0x10c>
    32d0:	ffc30313          	addi	t1,t1,-4
    32d4:	006a6863          	bltu	s4,t1,32e4 <quorem+0xfc>
    32d8:	0180006f          	j	32f0 <quorem+0x108>
    32dc:	fff48493          	addi	s1,s1,-1
    32e0:	006a7863          	bgeu	s4,t1,32f0 <quorem+0x108>
    32e4:	00032783          	lw	a5,0(t1)
    32e8:	ffc30313          	addi	t1,t1,-4
    32ec:	fe0788e3          	beqz	a5,32dc <quorem+0xf4>
    32f0:	009aa823          	sw	s1,16(s5)
    32f4:	000a8513          	mv	a0,s5
    32f8:	3d8050ef          	jal	ra,86d0 <__mcmp>
    32fc:	08054c63          	bltz	a0,3394 <quorem+0x1ac>
    3300:	00010537          	lui	a0,0x10
    3304:	000a0593          	mv	a1,s4
    3308:	00000713          	li	a4,0
    330c:	fff50513          	addi	a0,a0,-1 # ffff <__clzsi2+0x3>
    3310:	0005a683          	lw	a3,0(a1)
    3314:	00042603          	lw	a2,0(s0)
    3318:	00458593          	addi	a1,a1,4
    331c:	00a6f7b3          	and	a5,a3,a0
    3320:	00a67833          	and	a6,a2,a0
    3324:	410787b3          	sub	a5,a5,a6
    3328:	00e787b3          	add	a5,a5,a4
    332c:	4107d713          	srai	a4,a5,0x10
    3330:	01065613          	srli	a2,a2,0x10
    3334:	0106d693          	srli	a3,a3,0x10
    3338:	40c70733          	sub	a4,a4,a2
    333c:	00d70733          	add	a4,a4,a3
    3340:	01071693          	slli	a3,a4,0x10
    3344:	00a7f7b3          	and	a5,a5,a0
    3348:	00d7e7b3          	or	a5,a5,a3
    334c:	00440413          	addi	s0,s0,4
    3350:	fef5ae23          	sw	a5,-4(a1)
    3354:	41075713          	srai	a4,a4,0x10
    3358:	fa89fce3          	bgeu	s3,s0,3310 <quorem+0x128>
    335c:	00249793          	slli	a5,s1,0x2
    3360:	00fa07b3          	add	a5,s4,a5
    3364:	0007a703          	lw	a4,0(a5)
    3368:	02071463          	bnez	a4,3390 <quorem+0x1a8>
    336c:	ffc78793          	addi	a5,a5,-4
    3370:	00fa6863          	bltu	s4,a5,3380 <quorem+0x198>
    3374:	0180006f          	j	338c <quorem+0x1a4>
    3378:	fff48493          	addi	s1,s1,-1
    337c:	00fa7863          	bgeu	s4,a5,338c <quorem+0x1a4>
    3380:	0007a703          	lw	a4,0(a5)
    3384:	ffc78793          	addi	a5,a5,-4
    3388:	fe0708e3          	beqz	a4,3378 <quorem+0x190>
    338c:	009aa823          	sw	s1,16(s5)
    3390:	00190913          	addi	s2,s2,1
    3394:	00090513          	mv	a0,s2
    3398:	01c12083          	lw	ra,28(sp)
    339c:	01812403          	lw	s0,24(sp)
    33a0:	01412483          	lw	s1,20(sp)
    33a4:	01012903          	lw	s2,16(sp)
    33a8:	00c12983          	lw	s3,12(sp)
    33ac:	00812a03          	lw	s4,8(sp)
    33b0:	00412a83          	lw	s5,4(sp)
    33b4:	02010113          	addi	sp,sp,32
    33b8:	00008067          	ret
    33bc:	00000513          	li	a0,0
    33c0:	fd9ff06f          	j	3398 <quorem+0x1b0>

000033c4 <_dtoa_r>:
    33c4:	04052303          	lw	t1,64(a0)
    33c8:	f5010113          	addi	sp,sp,-176
    33cc:	0a812423          	sw	s0,168(sp)
    33d0:	0a912223          	sw	s1,164(sp)
    33d4:	0b212023          	sw	s2,160(sp)
    33d8:	09312e23          	sw	s3,156(sp)
    33dc:	09a12023          	sw	s10,128(sp)
    33e0:	07b12e23          	sw	s11,124(sp)
    33e4:	0a112623          	sw	ra,172(sp)
    33e8:	09412c23          	sw	s4,152(sp)
    33ec:	09512a23          	sw	s5,148(sp)
    33f0:	09612823          	sw	s6,144(sp)
    33f4:	09712623          	sw	s7,140(sp)
    33f8:	09812423          	sw	s8,136(sp)
    33fc:	09912223          	sw	s9,132(sp)
    3400:	00e12823          	sw	a4,16(sp)
    3404:	00f12223          	sw	a5,4(sp)
    3408:	01112023          	sw	a7,0(sp)
    340c:	02b12423          	sw	a1,40(sp)
    3410:	00050413          	mv	s0,a0
    3414:	00058d93          	mv	s11,a1
    3418:	00060493          	mv	s1,a2
    341c:	00068993          	mv	s3,a3
    3420:	00080913          	mv	s2,a6
    3424:	00060d13          	mv	s10,a2
    3428:	02030263          	beqz	t1,344c <_dtoa_r+0x88>
    342c:	04452703          	lw	a4,68(a0)
    3430:	00100793          	li	a5,1
    3434:	00030593          	mv	a1,t1
    3438:	00e797b3          	sll	a5,a5,a4
    343c:	00e32223          	sw	a4,4(t1)
    3440:	00f32423          	sw	a5,8(t1)
    3444:	0cd040ef          	jal	ra,7d10 <_Bfree>
    3448:	04042023          	sw	zero,64(s0)
    344c:	00048a93          	mv	s5,s1
    3450:	00000693          	li	a3,0
    3454:	0004da63          	bgez	s1,3468 <_dtoa_r+0xa4>
    3458:	00149493          	slli	s1,s1,0x1
    345c:	0014dd13          	srli	s10,s1,0x1
    3460:	000d0a93          	mv	s5,s10
    3464:	00100693          	li	a3,1
    3468:	7ff00737          	lui	a4,0x7ff00
    346c:	00d92023          	sw	a3,0(s2)
    3470:	00eaf6b3          	and	a3,s5,a4
    3474:	66e68663          	beq	a3,a4,3ae0 <_dtoa_r+0x71c>
    3478:	000d8513          	mv	a0,s11
    347c:	000d0593          	mv	a1,s10
    3480:	00000613          	li	a2,0
    3484:	00000693          	li	a3,0
    3488:	2b40b0ef          	jal	ra,e73c <__eqdf2>
    348c:	01b12a23          	sw	s11,20(sp)
    3490:	01a12c23          	sw	s10,24(sp)
    3494:	06051663          	bnez	a0,3500 <_dtoa_r+0x13c>
    3498:	00412703          	lw	a4,4(sp)
    349c:	00100793          	li	a5,1
    34a0:	00f72023          	sw	a5,0(a4) # 7ff00000 <_stack+0x7fec0000>
    34a4:	00012703          	lw	a4,0(sp)
    34a8:	00070863          	beqz	a4,34b8 <_dtoa_r+0xf4>
    34ac:	0001d797          	auipc	a5,0x1d
    34b0:	c2978793          	addi	a5,a5,-983 # 200d5 <environ+0x49>
    34b4:	00f72023          	sw	a5,0(a4)
    34b8:	0001da97          	auipc	s5,0x1d
    34bc:	c1ca8a93          	addi	s5,s5,-996 # 200d4 <environ+0x48>
    34c0:	0ac12083          	lw	ra,172(sp)
    34c4:	0a812403          	lw	s0,168(sp)
    34c8:	0a412483          	lw	s1,164(sp)
    34cc:	0a012903          	lw	s2,160(sp)
    34d0:	09c12983          	lw	s3,156(sp)
    34d4:	09812a03          	lw	s4,152(sp)
    34d8:	09012b03          	lw	s6,144(sp)
    34dc:	08c12b83          	lw	s7,140(sp)
    34e0:	08812c03          	lw	s8,136(sp)
    34e4:	08412c83          	lw	s9,132(sp)
    34e8:	08012d03          	lw	s10,128(sp)
    34ec:	07c12d83          	lw	s11,124(sp)
    34f0:	000a8513          	mv	a0,s5
    34f4:	09412a83          	lw	s5,148(sp)
    34f8:	0b010113          	addi	sp,sp,176
    34fc:	00008067          	ret
    3500:	06810713          	addi	a4,sp,104
    3504:	06c10693          	addi	a3,sp,108
    3508:	000d0613          	mv	a2,s10
    350c:	000d8593          	mv	a1,s11
    3510:	00040513          	mv	a0,s0
    3514:	5e8050ef          	jal	ra,8afc <__d2b>
    3518:	014ad913          	srli	s2,s5,0x14
    351c:	00050493          	mv	s1,a0
    3520:	60091263          	bnez	s2,3b24 <_dtoa_r+0x760>
    3524:	06812a03          	lw	s4,104(sp)
    3528:	06c12903          	lw	s2,108(sp)
    352c:	02000793          	li	a5,32
    3530:	012a0933          	add	s2,s4,s2
    3534:	43290713          	addi	a4,s2,1074
    3538:	36e7dee3          	bge	a5,a4,40b4 <_dtoa_r+0xcf0>
    353c:	04000793          	li	a5,64
    3540:	40e787b3          	sub	a5,a5,a4
    3544:	41290513          	addi	a0,s2,1042
    3548:	00fa97b3          	sll	a5,s5,a5
    354c:	00add533          	srl	a0,s11,a0
    3550:	00a7e533          	or	a0,a5,a0
    3554:	6400c0ef          	jal	ra,fb94 <__floatunsidf>
    3558:	fe1007b7          	lui	a5,0xfe100
    355c:	00100693          	li	a3,1
    3560:	00050713          	mv	a4,a0
    3564:	00b787b3          	add	a5,a5,a1
    3568:	fff90913          	addi	s2,s2,-1
    356c:	02d12a23          	sw	a3,52(sp)
    3570:	0001d697          	auipc	a3,0x1d
    3574:	ac068693          	addi	a3,a3,-1344 # 20030 <__DTOR_END__+0x20>
    3578:	0006a603          	lw	a2,0(a3)
    357c:	0046a683          	lw	a3,4(a3)
    3580:	00070513          	mv	a0,a4
    3584:	00078593          	mv	a1,a5
    3588:	3690b0ef          	jal	ra,f0f0 <__subdf3>
    358c:	0001d797          	auipc	a5,0x1d
    3590:	aac78793          	addi	a5,a5,-1364 # 20038 <__DTOR_END__+0x28>
    3594:	0007a603          	lw	a2,0(a5)
    3598:	0047a683          	lw	a3,4(a5)
    359c:	4300b0ef          	jal	ra,e9cc <__muldf3>
    35a0:	0001d797          	auipc	a5,0x1d
    35a4:	aa078793          	addi	a5,a5,-1376 # 20040 <__DTOR_END__+0x30>
    35a8:	0007a603          	lw	a2,0(a5)
    35ac:	0047a683          	lw	a3,4(a5)
    35b0:	1400a0ef          	jal	ra,d6f0 <__adddf3>
    35b4:	00050b13          	mv	s6,a0
    35b8:	00090513          	mv	a0,s2
    35bc:	00058a93          	mv	s5,a1
    35c0:	51c0c0ef          	jal	ra,fadc <__floatsidf>
    35c4:	0001d797          	auipc	a5,0x1d
    35c8:	a8478793          	addi	a5,a5,-1404 # 20048 <__DTOR_END__+0x38>
    35cc:	0007a603          	lw	a2,0(a5)
    35d0:	0047a683          	lw	a3,4(a5)
    35d4:	3f80b0ef          	jal	ra,e9cc <__muldf3>
    35d8:	00050613          	mv	a2,a0
    35dc:	00058693          	mv	a3,a1
    35e0:	000b0513          	mv	a0,s6
    35e4:	000a8593          	mv	a1,s5
    35e8:	1080a0ef          	jal	ra,d6f0 <__adddf3>
    35ec:	00050b13          	mv	s6,a0
    35f0:	00058a93          	mv	s5,a1
    35f4:	4640c0ef          	jal	ra,fa58 <__fixdfsi>
    35f8:	00050c13          	mv	s8,a0
    35fc:	000a8593          	mv	a1,s5
    3600:	000b0513          	mv	a0,s6
    3604:	00000613          	li	a2,0
    3608:	00000693          	li	a3,0
    360c:	2c00b0ef          	jal	ra,e8cc <__ledf2>
    3610:	02055063          	bgez	a0,3630 <_dtoa_r+0x26c>
    3614:	000c0513          	mv	a0,s8
    3618:	4c40c0ef          	jal	ra,fadc <__floatsidf>
    361c:	000b0613          	mv	a2,s6
    3620:	000a8693          	mv	a3,s5
    3624:	1180b0ef          	jal	ra,e73c <__eqdf2>
    3628:	00a03533          	snez	a0,a0
    362c:	40ac0c33          	sub	s8,s8,a0
    3630:	412a0a33          	sub	s4,s4,s2
    3634:	01600793          	li	a5,22
    3638:	fffa0b13          	addi	s6,s4,-1
    363c:	2387e6e3          	bltu	a5,s8,4068 <_dtoa_r+0xca4>
    3640:	0001d917          	auipc	s2,0x1d
    3644:	32090913          	addi	s2,s2,800 # 20960 <__mprec_tens>
    3648:	003c1793          	slli	a5,s8,0x3
    364c:	00f907b3          	add	a5,s2,a5
    3650:	0007a603          	lw	a2,0(a5)
    3654:	0047a683          	lw	a3,4(a5)
    3658:	01412503          	lw	a0,20(sp)
    365c:	01812583          	lw	a1,24(sp)
    3660:	26c0b0ef          	jal	ra,e8cc <__ledf2>
    3664:	280556e3          	bgez	a0,40f0 <_dtoa_r+0xd2c>
    3668:	fffc0c13          	addi	s8,s8,-1
    366c:	02012823          	sw	zero,48(sp)
    3670:	00012423          	sw	zero,8(sp)
    3674:	4c0b4c63          	bltz	s6,3b4c <_dtoa_r+0x788>
    3678:	4e0c5463          	bgez	s8,3b60 <_dtoa_r+0x79c>
    367c:	00812783          	lw	a5,8(sp)
    3680:	01812e23          	sw	s8,28(sp)
    3684:	418787b3          	sub	a5,a5,s8
    3688:	00f12423          	sw	a5,8(sp)
    368c:	418007b3          	neg	a5,s8
    3690:	02f12623          	sw	a5,44(sp)
    3694:	00900793          	li	a5,9
    3698:	00000c13          	li	s8,0
    369c:	4d37ec63          	bltu	a5,s3,3b74 <_dtoa_r+0x7b0>
    36a0:	00500793          	li	a5,5
    36a4:	2137dee3          	bge	a5,s3,40c0 <_dtoa_r+0xcfc>
    36a8:	ffc98993          	addi	s3,s3,-4
    36ac:	00300793          	li	a5,3
    36b0:	00000913          	li	s2,0
    36b4:	64f988e3          	beq	s3,a5,4504 <_dtoa_r+0x1140>
    36b8:	6137d8e3          	bge	a5,s3,44c8 <_dtoa_r+0x1104>
    36bc:	00400793          	li	a5,4
    36c0:	50f986e3          	beq	s3,a5,43cc <_dtoa_r+0x1008>
    36c4:	00100793          	li	a5,1
    36c8:	00500993          	li	s3,5
    36cc:	02f12023          	sw	a5,32(sp)
    36d0:	01012783          	lw	a5,16(sp)
    36d4:	01c12703          	lw	a4,28(sp)
    36d8:	00e787b3          	add	a5,a5,a4
    36dc:	00178a13          	addi	s4,a5,1
    36e0:	04f12023          	sw	a5,64(sp)
    36e4:	000a0613          	mv	a2,s4
    36e8:	01404463          	bgtz	s4,36f0 <_dtoa_r+0x32c>
    36ec:	00100613          	li	a2,1
    36f0:	01700693          	li	a3,23
    36f4:	00100713          	li	a4,1
    36f8:	00400793          	li	a5,4
    36fc:	00c6c463          	blt	a3,a2,3704 <_dtoa_r+0x340>
    3700:	3380106f          	j	4a38 <_dtoa_r+0x1674>
    3704:	00179793          	slli	a5,a5,0x1
    3708:	01478693          	addi	a3,a5,20
    370c:	00070593          	mv	a1,a4
    3710:	00170713          	addi	a4,a4,1
    3714:	fed678e3          	bgeu	a2,a3,3704 <_dtoa_r+0x340>
    3718:	04b42223          	sw	a1,68(s0)
    371c:	00040513          	mv	a0,s0
    3720:	548040ef          	jal	ra,7c68 <_Balloc>
    3724:	00050a93          	mv	s5,a0
    3728:	00051463          	bnez	a0,3730 <_dtoa_r+0x36c>
    372c:	2f00106f          	j	4a1c <_dtoa_r+0x1658>
    3730:	04a42023          	sw	a0,64(s0)
    3734:	00e00793          	li	a5,14
    3738:	5347e263          	bltu	a5,s4,3c5c <_dtoa_r+0x898>
    373c:	52090063          	beqz	s2,3c5c <_dtoa_r+0x898>
    3740:	01c12703          	lw	a4,28(sp)
    3744:	60e050e3          	blez	a4,4544 <_dtoa_r+0x1180>
    3748:	00f77793          	andi	a5,a4,15
    374c:	40475c93          	srai	s9,a4,0x4
    3750:	0001d917          	auipc	s2,0x1d
    3754:	21090913          	addi	s2,s2,528 # 20960 <__mprec_tens>
    3758:	00379793          	slli	a5,a5,0x3
    375c:	00f907b3          	add	a5,s2,a5
    3760:	010cf693          	andi	a3,s9,16
    3764:	0007a803          	lw	a6,0(a5)
    3768:	0047a703          	lw	a4,4(a5)
    376c:	540686e3          	beqz	a3,44b8 <_dtoa_r+0x10f4>
    3770:	0001d797          	auipc	a5,0x1d
    3774:	1c878793          	addi	a5,a5,456 # 20938 <__mprec_bigtens>
    3778:	0207a603          	lw	a2,32(a5)
    377c:	0247a683          	lw	a3,36(a5)
    3780:	01412503          	lw	a0,20(sp)
    3784:	01812583          	lw	a1,24(sp)
    3788:	04e12223          	sw	a4,68(sp)
    378c:	03012c23          	sw	a6,56(sp)
    3790:	0290a0ef          	jal	ra,dfb8 <__divdf3>
    3794:	03812803          	lw	a6,56(sp)
    3798:	04412703          	lw	a4,68(sp)
    379c:	00fcfc93          	andi	s9,s9,15
    37a0:	00050313          	mv	t1,a0
    37a4:	00058893          	mv	a7,a1
    37a8:	00300913          	li	s2,3
    37ac:	060c8663          	beqz	s9,3818 <_dtoa_r+0x454>
    37b0:	0001db97          	auipc	s7,0x1d
    37b4:	188b8b93          	addi	s7,s7,392 # 20938 <__mprec_bigtens>
    37b8:	02912c23          	sw	s1,56(sp)
    37bc:	04812223          	sw	s0,68(sp)
    37c0:	00090493          	mv	s1,s2
    37c4:	000b8413          	mv	s0,s7
    37c8:	00088913          	mv	s2,a7
    37cc:	00030b93          	mv	s7,t1
    37d0:	00070593          	mv	a1,a4
    37d4:	001cf693          	andi	a3,s9,1
    37d8:	00068e63          	beqz	a3,37f4 <_dtoa_r+0x430>
    37dc:	00042603          	lw	a2,0(s0)
    37e0:	00442683          	lw	a3,4(s0)
    37e4:	00080513          	mv	a0,a6
    37e8:	00148493          	addi	s1,s1,1
    37ec:	1e00b0ef          	jal	ra,e9cc <__muldf3>
    37f0:	00050813          	mv	a6,a0
    37f4:	401cdc93          	srai	s9,s9,0x1
    37f8:	00840413          	addi	s0,s0,8
    37fc:	fc0c9ce3          	bnez	s9,37d4 <_dtoa_r+0x410>
    3800:	00090893          	mv	a7,s2
    3804:	04412403          	lw	s0,68(sp)
    3808:	00048913          	mv	s2,s1
    380c:	03812483          	lw	s1,56(sp)
    3810:	000b8313          	mv	t1,s7
    3814:	00058713          	mv	a4,a1
    3818:	00080613          	mv	a2,a6
    381c:	00030513          	mv	a0,t1
    3820:	00070693          	mv	a3,a4
    3824:	00088593          	mv	a1,a7
    3828:	7900a0ef          	jal	ra,dfb8 <__divdf3>
    382c:	00050793          	mv	a5,a0
    3830:	00058b93          	mv	s7,a1
    3834:	03012703          	lw	a4,48(sp)
    3838:	02070863          	beqz	a4,3868 <_dtoa_r+0x4a4>
    383c:	0001d697          	auipc	a3,0x1d
    3840:	81468693          	addi	a3,a3,-2028 # 20050 <__DTOR_END__+0x40>
    3844:	0006a603          	lw	a2,0(a3)
    3848:	0046a683          	lw	a3,4(a3)
    384c:	00078513          	mv	a0,a5
    3850:	000b8593          	mv	a1,s7
    3854:	02f12c23          	sw	a5,56(sp)
    3858:	0740b0ef          	jal	ra,e8cc <__ledf2>
    385c:	03812783          	lw	a5,56(sp)
    3860:	00055463          	bgez	a0,3868 <_dtoa_r+0x4a4>
    3864:	0300106f          	j	4894 <_dtoa_r+0x14d0>
    3868:	00090513          	mv	a0,s2
    386c:	02f12c23          	sw	a5,56(sp)
    3870:	26c0c0ef          	jal	ra,fadc <__floatsidf>
    3874:	03812783          	lw	a5,56(sp)
    3878:	000b8693          	mv	a3,s7
    387c:	00078613          	mv	a2,a5
    3880:	04f12223          	sw	a5,68(sp)
    3884:	1480b0ef          	jal	ra,e9cc <__muldf3>
    3888:	0001c717          	auipc	a4,0x1c
    388c:	7d870713          	addi	a4,a4,2008 # 20060 <__DTOR_END__+0x50>
    3890:	00072603          	lw	a2,0(a4)
    3894:	00472683          	lw	a3,4(a4)
    3898:	659090ef          	jal	ra,d6f0 <__adddf3>
    389c:	fcc00737          	lui	a4,0xfcc00
    38a0:	00b707b3          	add	a5,a4,a1
    38a4:	02f12c23          	sw	a5,56(sp)
    38a8:	00050c93          	mv	s9,a0
    38ac:	04412783          	lw	a5,68(sp)
    38b0:	340a0863          	beqz	s4,3c00 <_dtoa_r+0x83c>
    38b4:	01c12703          	lw	a4,28(sp)
    38b8:	05412223          	sw	s4,68(sp)
    38bc:	04e12c23          	sw	a4,88(sp)
    38c0:	04412703          	lw	a4,68(sp)
    38c4:	0001d917          	auipc	s2,0x1d
    38c8:	09c90913          	addi	s2,s2,156 # 20960 <__mprec_tens>
    38cc:	00078513          	mv	a0,a5
    38d0:	fff70713          	addi	a4,a4,-1 # fcbfffff <_stack+0xfcbbffff>
    38d4:	00371713          	slli	a4,a4,0x3
    38d8:	00e90733          	add	a4,s2,a4
    38dc:	00472803          	lw	a6,4(a4)
    38e0:	04f12623          	sw	a5,76(sp)
    38e4:	00072783          	lw	a5,0(a4)
    38e8:	000b8593          	mv	a1,s7
    38ec:	05012a23          	sw	a6,84(sp)
    38f0:	04f12823          	sw	a5,80(sp)
    38f4:	1640c0ef          	jal	ra,fa58 <__fixdfsi>
    38f8:	04a12423          	sw	a0,72(sp)
    38fc:	1e00c0ef          	jal	ra,fadc <__floatsidf>
    3900:	04c12783          	lw	a5,76(sp)
    3904:	00058693          	mv	a3,a1
    3908:	00050613          	mv	a2,a0
    390c:	000b8593          	mv	a1,s7
    3910:	00078513          	mv	a0,a5
    3914:	7dc0b0ef          	jal	ra,f0f0 <__subdf3>
    3918:	04812703          	lw	a4,72(sp)
    391c:	000c8793          	mv	a5,s9
    3920:	03812b83          	lw	s7,56(sp)
    3924:	03070693          	addi	a3,a4,48
    3928:	0ff6f813          	zext.b	a6,a3
    392c:	02012683          	lw	a3,32(sp)
    3930:	00050c93          	mv	s9,a0
    3934:	001a8713          	addi	a4,s5,1
    3938:	5c0686e3          	beqz	a3,4704 <_dtoa_r+0x1340>
    393c:	0001c697          	auipc	a3,0x1c
    3940:	6ec68693          	addi	a3,a3,1772 # 20028 <__DTOR_END__+0x18>
    3944:	0006a503          	lw	a0,0(a3)
    3948:	05012603          	lw	a2,80(sp)
    394c:	02b12c23          	sw	a1,56(sp)
    3950:	0046a583          	lw	a1,4(a3)
    3954:	05412683          	lw	a3,84(sp)
    3958:	04e12423          	sw	a4,72(sp)
    395c:	05012623          	sw	a6,76(sp)
    3960:	04f12e23          	sw	a5,92(sp)
    3964:	6540a0ef          	jal	ra,dfb8 <__divdf3>
    3968:	05c12783          	lw	a5,92(sp)
    396c:	000b8693          	mv	a3,s7
    3970:	00078613          	mv	a2,a5
    3974:	77c0b0ef          	jal	ra,f0f0 <__subdf3>
    3978:	03812883          	lw	a7,56(sp)
    397c:	04c12803          	lw	a6,76(sp)
    3980:	000c8613          	mv	a2,s9
    3984:	00088693          	mv	a3,a7
    3988:	010a8023          	sb	a6,0(s5)
    398c:	00050913          	mv	s2,a0
    3990:	00058b93          	mv	s7,a1
    3994:	6350a0ef          	jal	ra,e7c8 <__gedf2>
    3998:	03812883          	lw	a7,56(sp)
    399c:	04812703          	lw	a4,72(sp)
    39a0:	00a05463          	blez	a0,39a8 <_dtoa_r+0x5e4>
    39a4:	7a90006f          	j	494c <_dtoa_r+0x1588>
    39a8:	0001c697          	auipc	a3,0x1c
    39ac:	6a868693          	addi	a3,a3,1704 # 20050 <__DTOR_END__+0x40>
    39b0:	0006a783          	lw	a5,0(a3)
    39b4:	0046a803          	lw	a6,4(a3)
    39b8:	05812423          	sw	s8,72(sp)
    39bc:	02f12c23          	sw	a5,56(sp)
    39c0:	00000793          	li	a5,0
    39c4:	04412c03          	lw	s8,68(sp)
    39c8:	05612623          	sw	s6,76(sp)
    39cc:	05412823          	sw	s4,80(sp)
    39d0:	05312223          	sw	s3,68(sp)
    39d4:	03012e23          	sw	a6,60(sp)
    39d8:	00070b13          	mv	s6,a4
    39dc:	00078a13          	mv	s4,a5
    39e0:	05a12e23          	sw	s10,92(sp)
    39e4:	00088993          	mv	s3,a7
    39e8:	0980006f          	j	3a80 <_dtoa_r+0x6bc>
    39ec:	001a0a13          	addi	s4,s4,1
    39f0:	018a4463          	blt	s4,s8,39f8 <_dtoa_r+0x634>
    39f4:	79d0006f          	j	4990 <_dtoa_r+0x15cc>
    39f8:	0001cd17          	auipc	s10,0x1c
    39fc:	660d0d13          	addi	s10,s10,1632 # 20058 <__DTOR_END__+0x48>
    3a00:	000d2603          	lw	a2,0(s10)
    3a04:	004d2683          	lw	a3,4(s10)
    3a08:	00090513          	mv	a0,s2
    3a0c:	000b8593          	mv	a1,s7
    3a10:	7bd0a0ef          	jal	ra,e9cc <__muldf3>
    3a14:	000d2603          	lw	a2,0(s10)
    3a18:	004d2683          	lw	a3,4(s10)
    3a1c:	00050913          	mv	s2,a0
    3a20:	00058b93          	mv	s7,a1
    3a24:	000c8513          	mv	a0,s9
    3a28:	00098593          	mv	a1,s3
    3a2c:	7a10a0ef          	jal	ra,e9cc <__muldf3>
    3a30:	00058c93          	mv	s9,a1
    3a34:	00050d13          	mv	s10,a0
    3a38:	0200c0ef          	jal	ra,fa58 <__fixdfsi>
    3a3c:	00050993          	mv	s3,a0
    3a40:	09c0c0ef          	jal	ra,fadc <__floatsidf>
    3a44:	00050613          	mv	a2,a0
    3a48:	00058693          	mv	a3,a1
    3a4c:	000d0513          	mv	a0,s10
    3a50:	000c8593          	mv	a1,s9
    3a54:	69c0b0ef          	jal	ra,f0f0 <__subdf3>
    3a58:	03098793          	addi	a5,s3,48
    3a5c:	00090613          	mv	a2,s2
    3a60:	000b8693          	mv	a3,s7
    3a64:	00fb0023          	sb	a5,0(s6)
    3a68:	001b0b13          	addi	s6,s6,1
    3a6c:	00050c93          	mv	s9,a0
    3a70:	00058993          	mv	s3,a1
    3a74:	6590a0ef          	jal	ra,e8cc <__ledf2>
    3a78:	00055463          	bgez	a0,3a80 <_dtoa_r+0x6bc>
    3a7c:	6cd0006f          	j	4948 <_dtoa_r+0x1584>
    3a80:	03812503          	lw	a0,56(sp)
    3a84:	03c12583          	lw	a1,60(sp)
    3a88:	000c8613          	mv	a2,s9
    3a8c:	00098693          	mv	a3,s3
    3a90:	6600b0ef          	jal	ra,f0f0 <__subdf3>
    3a94:	00090613          	mv	a2,s2
    3a98:	000b8693          	mv	a3,s7
    3a9c:	6310a0ef          	jal	ra,e8cc <__ledf2>
    3aa0:	f40556e3          	bgez	a0,39ec <_dtoa_r+0x628>
    3aa4:	05812783          	lw	a5,88(sp)
    3aa8:	000b0b93          	mv	s7,s6
    3aac:	00178c93          	addi	s9,a5,1
    3ab0:	03900613          	li	a2,57
    3ab4:	0080006f          	j	3abc <_dtoa_r+0x6f8>
    3ab8:	677a8ce3          	beq	s5,s7,4930 <_dtoa_r+0x156c>
    3abc:	fffbc683          	lbu	a3,-1(s7)
    3ac0:	000b8713          	mv	a4,s7
    3ac4:	fffb8b93          	addi	s7,s7,-1
    3ac8:	fec688e3          	beq	a3,a2,3ab8 <_dtoa_r+0x6f4>
    3acc:	00168693          	addi	a3,a3,1
    3ad0:	0ff6f693          	zext.b	a3,a3
    3ad4:	00db8023          	sb	a3,0(s7)
    3ad8:	000c8c13          	mv	s8,s9
    3adc:	4f80006f          	j	3fd4 <_dtoa_r+0xc10>
    3ae0:	00412683          	lw	a3,4(sp)
    3ae4:	00ca9793          	slli	a5,s5,0xc
    3ae8:	00002737          	lui	a4,0x2
    3aec:	00c7d793          	srli	a5,a5,0xc
    3af0:	70f70713          	addi	a4,a4,1807 # 270f <_vfprintf_r+0x253b>
    3af4:	00e6a023          	sw	a4,0(a3)
    3af8:	01b7e7b3          	or	a5,a5,s11
    3afc:	0a078063          	beqz	a5,3b9c <_dtoa_r+0x7d8>
    3b00:	00012783          	lw	a5,0(sp)
    3b04:	0001da97          	auipc	s5,0x1d
    3b08:	804a8a93          	addi	s5,s5,-2044 # 20308 <blanks.1+0x1c>
    3b0c:	9a078ae3          	beqz	a5,34c0 <_dtoa_r+0xfc>
    3b10:	0001c797          	auipc	a5,0x1c
    3b14:	7fb78793          	addi	a5,a5,2043 # 2030b <blanks.1+0x1f>
    3b18:	00012703          	lw	a4,0(sp)
    3b1c:	00f72023          	sw	a5,0(a4)
    3b20:	9a1ff06f          	j	34c0 <_dtoa_r+0xfc>
    3b24:	01812783          	lw	a5,24(sp)
    3b28:	3ff006b7          	lui	a3,0x3ff00
    3b2c:	06812a03          	lw	s4,104(sp)
    3b30:	00c79793          	slli	a5,a5,0xc
    3b34:	00c7d793          	srli	a5,a5,0xc
    3b38:	01412703          	lw	a4,20(sp)
    3b3c:	00d7e7b3          	or	a5,a5,a3
    3b40:	c0190913          	addi	s2,s2,-1023
    3b44:	02012a23          	sw	zero,52(sp)
    3b48:	a29ff06f          	j	3570 <_dtoa_r+0x1ac>
    3b4c:	00100793          	li	a5,1
    3b50:	414787b3          	sub	a5,a5,s4
    3b54:	00f12423          	sw	a5,8(sp)
    3b58:	00000b13          	li	s6,0
    3b5c:	b20c40e3          	bltz	s8,367c <_dtoa_r+0x2b8>
    3b60:	01812e23          	sw	s8,28(sp)
    3b64:	02012623          	sw	zero,44(sp)
    3b68:	00900793          	li	a5,9
    3b6c:	018b0b33          	add	s6,s6,s8
    3b70:	b337f8e3          	bgeu	a5,s3,36a0 <_dtoa_r+0x2dc>
    3b74:	00100793          	li	a5,1
    3b78:	00100913          	li	s2,1
    3b7c:	00000993          	li	s3,0
    3b80:	02f12023          	sw	a5,32(sp)
    3b84:	fff00a13          	li	s4,-1
    3b88:	00012823          	sw	zero,16(sp)
    3b8c:	04042223          	sw	zero,68(s0)
    3b90:	05412023          	sw	s4,64(sp)
    3b94:	00000593          	li	a1,0
    3b98:	b85ff06f          	j	371c <_dtoa_r+0x358>
    3b9c:	00012703          	lw	a4,0(sp)
    3ba0:	0001ca97          	auipc	s5,0x1c
    3ba4:	75ca8a93          	addi	s5,s5,1884 # 202fc <blanks.1+0x10>
    3ba8:	0001c797          	auipc	a5,0x1c
    3bac:	75c78793          	addi	a5,a5,1884 # 20304 <blanks.1+0x18>
    3bb0:	f60714e3          	bnez	a4,3b18 <_dtoa_r+0x754>
    3bb4:	90dff06f          	j	34c0 <_dtoa_r+0xfc>
    3bb8:	00090513          	mv	a0,s2
    3bbc:	02f12c23          	sw	a5,56(sp)
    3bc0:	71d0b0ef          	jal	ra,fadc <__floatsidf>
    3bc4:	03812783          	lw	a5,56(sp)
    3bc8:	000b8693          	mv	a3,s7
    3bcc:	00078613          	mv	a2,a5
    3bd0:	04f12223          	sw	a5,68(sp)
    3bd4:	5f90a0ef          	jal	ra,e9cc <__muldf3>
    3bd8:	0001c717          	auipc	a4,0x1c
    3bdc:	48870713          	addi	a4,a4,1160 # 20060 <__DTOR_END__+0x50>
    3be0:	00072603          	lw	a2,0(a4)
    3be4:	00472683          	lw	a3,4(a4)
    3be8:	309090ef          	jal	ra,d6f0 <__adddf3>
    3bec:	fcc00737          	lui	a4,0xfcc00
    3bf0:	00b707b3          	add	a5,a4,a1
    3bf4:	02f12c23          	sw	a5,56(sp)
    3bf8:	04412783          	lw	a5,68(sp)
    3bfc:	00050c93          	mv	s9,a0
    3c00:	0001c717          	auipc	a4,0x1c
    3c04:	46870713          	addi	a4,a4,1128 # 20068 <__DTOR_END__+0x58>
    3c08:	00072603          	lw	a2,0(a4)
    3c0c:	00472683          	lw	a3,4(a4)
    3c10:	00078513          	mv	a0,a5
    3c14:	000b8593          	mv	a1,s7
    3c18:	4d80b0ef          	jal	ra,f0f0 <__subdf3>
    3c1c:	03812783          	lw	a5,56(sp)
    3c20:	000c8613          	mv	a2,s9
    3c24:	00050b93          	mv	s7,a0
    3c28:	00078693          	mv	a3,a5
    3c2c:	00058913          	mv	s2,a1
    3c30:	3990a0ef          	jal	ra,e7c8 <__gedf2>
    3c34:	50a044e3          	bgtz	a0,493c <_dtoa_r+0x1578>
    3c38:	03812703          	lw	a4,56(sp)
    3c3c:	800007b7          	lui	a5,0x80000
    3c40:	000b8513          	mv	a0,s7
    3c44:	00e7c7b3          	xor	a5,a5,a4
    3c48:	000c8613          	mv	a2,s9
    3c4c:	00078693          	mv	a3,a5
    3c50:	00090593          	mv	a1,s2
    3c54:	4790a0ef          	jal	ra,e8cc <__ledf2>
    3c58:	06054c63          	bltz	a0,3cd0 <_dtoa_r+0x90c>
    3c5c:	06c12783          	lw	a5,108(sp)
    3c60:	1a07c263          	bltz	a5,3e04 <_dtoa_r+0xa40>
    3c64:	01c12683          	lw	a3,28(sp)
    3c68:	00e00713          	li	a4,14
    3c6c:	0001d917          	auipc	s2,0x1d
    3c70:	cf490913          	addi	s2,s2,-780 # 20960 <__mprec_tens>
    3c74:	18d74863          	blt	a4,a3,3e04 <_dtoa_r+0xa40>
    3c78:	01c12783          	lw	a5,28(sp)
    3c7c:	00379793          	slli	a5,a5,0x3
    3c80:	00f907b3          	add	a5,s2,a5
    3c84:	0007a903          	lw	s2,0(a5) # 80000000 <_stack+0x7ffc0000>
    3c88:	0047a983          	lw	s3,4(a5)
    3c8c:	01012783          	lw	a5,16(sp)
    3c90:	0407dc63          	bgez	a5,3ce8 <_dtoa_r+0x924>
    3c94:	05404a63          	bgtz	s4,3ce8 <_dtoa_r+0x924>
    3c98:	020a1c63          	bnez	s4,3cd0 <_dtoa_r+0x90c>
    3c9c:	0001c797          	auipc	a5,0x1c
    3ca0:	3cc78793          	addi	a5,a5,972 # 20068 <__DTOR_END__+0x58>
    3ca4:	0007a603          	lw	a2,0(a5)
    3ca8:	0047a683          	lw	a3,4(a5)
    3cac:	00090513          	mv	a0,s2
    3cb0:	00098593          	mv	a1,s3
    3cb4:	5190a0ef          	jal	ra,e9cc <__muldf3>
    3cb8:	00050613          	mv	a2,a0
    3cbc:	00058693          	mv	a3,a1
    3cc0:	01412503          	lw	a0,20(sp)
    3cc4:	01812583          	lw	a1,24(sp)
    3cc8:	4050a0ef          	jal	ra,e8cc <__ledf2>
    3ccc:	46a048e3          	bgtz	a0,493c <_dtoa_r+0x1578>
    3cd0:	000a8713          	mv	a4,s5
    3cd4:	00000b93          	li	s7,0
    3cd8:	00000913          	li	s2,0
    3cdc:	01012783          	lw	a5,16(sp)
    3ce0:	fff7cc13          	not	s8,a5
    3ce4:	6840006f          	j	4368 <_dtoa_r+0xfa4>
    3ce8:	01412b83          	lw	s7,20(sp)
    3cec:	01812b03          	lw	s6,24(sp)
    3cf0:	00090613          	mv	a2,s2
    3cf4:	00098693          	mv	a3,s3
    3cf8:	000b8513          	mv	a0,s7
    3cfc:	000b0593          	mv	a1,s6
    3d00:	2b80a0ef          	jal	ra,dfb8 <__divdf3>
    3d04:	5550b0ef          	jal	ra,fa58 <__fixdfsi>
    3d08:	00050d13          	mv	s10,a0
    3d0c:	5d10b0ef          	jal	ra,fadc <__floatsidf>
    3d10:	00090613          	mv	a2,s2
    3d14:	00098693          	mv	a3,s3
    3d18:	4b50a0ef          	jal	ra,e9cc <__muldf3>
    3d1c:	00050613          	mv	a2,a0
    3d20:	00058693          	mv	a3,a1
    3d24:	000b8513          	mv	a0,s7
    3d28:	000b0593          	mv	a1,s6
    3d2c:	3c40b0ef          	jal	ra,f0f0 <__subdf3>
    3d30:	030d0793          	addi	a5,s10,48
    3d34:	00fa8023          	sb	a5,0(s5)
    3d38:	00100613          	li	a2,1
    3d3c:	00050713          	mv	a4,a0
    3d40:	00058693          	mv	a3,a1
    3d44:	001a8b93          	addi	s7,s5,1
    3d48:	0cca06e3          	beq	s4,a2,4614 <_dtoa_r+0x1250>
    3d4c:	0001c617          	auipc	a2,0x1c
    3d50:	30c60613          	addi	a2,a2,780 # 20058 <__DTOR_END__+0x48>
    3d54:	00062783          	lw	a5,0(a2)
    3d58:	00462803          	lw	a6,4(a2)
    3d5c:	00100d93          	li	s11,1
    3d60:	00f12423          	sw	a5,8(sp)
    3d64:	01012623          	sw	a6,12(sp)
    3d68:	0600006f          	j	3dc8 <_dtoa_r+0xa04>
    3d6c:	00090613          	mv	a2,s2
    3d70:	00098693          	mv	a3,s3
    3d74:	000c0513          	mv	a0,s8
    3d78:	000b0593          	mv	a1,s6
    3d7c:	23c0a0ef          	jal	ra,dfb8 <__divdf3>
    3d80:	4d90b0ef          	jal	ra,fa58 <__fixdfsi>
    3d84:	00050d13          	mv	s10,a0
    3d88:	5550b0ef          	jal	ra,fadc <__floatsidf>
    3d8c:	00090613          	mv	a2,s2
    3d90:	00098693          	mv	a3,s3
    3d94:	4390a0ef          	jal	ra,e9cc <__muldf3>
    3d98:	00058693          	mv	a3,a1
    3d9c:	00050613          	mv	a2,a0
    3da0:	000b0593          	mv	a1,s6
    3da4:	000c0513          	mv	a0,s8
    3da8:	3480b0ef          	jal	ra,f0f0 <__subdf3>
    3dac:	001b8b93          	addi	s7,s7,1
    3db0:	030d0793          	addi	a5,s10,48
    3db4:	001d8d93          	addi	s11,s11,1
    3db8:	fefb8fa3          	sb	a5,-1(s7)
    3dbc:	00050713          	mv	a4,a0
    3dc0:	00058693          	mv	a3,a1
    3dc4:	05ba08e3          	beq	s4,s11,4614 <_dtoa_r+0x1250>
    3dc8:	00812603          	lw	a2,8(sp)
    3dcc:	00068593          	mv	a1,a3
    3dd0:	00c12683          	lw	a3,12(sp)
    3dd4:	00070513          	mv	a0,a4
    3dd8:	3f50a0ef          	jal	ra,e9cc <__muldf3>
    3ddc:	00000613          	li	a2,0
    3de0:	00000693          	li	a3,0
    3de4:	00050c13          	mv	s8,a0
    3de8:	00058b13          	mv	s6,a1
    3dec:	1510a0ef          	jal	ra,e73c <__eqdf2>
    3df0:	f6051ee3          	bnez	a0,3d6c <_dtoa_r+0x9a8>
    3df4:	01c12783          	lw	a5,28(sp)
    3df8:	000b8713          	mv	a4,s7
    3dfc:	00178c13          	addi	s8,a5,1
    3e00:	1d40006f          	j	3fd4 <_dtoa_r+0xc10>
    3e04:	02012703          	lw	a4,32(sp)
    3e08:	26071a63          	bnez	a4,407c <_dtoa_r+0xcb8>
    3e0c:	02c12b83          	lw	s7,44(sp)
    3e10:	00812c83          	lw	s9,8(sp)
    3e14:	02012023          	sw	zero,32(sp)
    3e18:	00000913          	li	s2,0
    3e1c:	020c8263          	beqz	s9,3e40 <_dtoa_r+0xa7c>
    3e20:	03605063          	blez	s6,3e40 <_dtoa_r+0xa7c>
    3e24:	000c8793          	mv	a5,s9
    3e28:	639b4c63          	blt	s6,s9,4460 <_dtoa_r+0x109c>
    3e2c:	00812703          	lw	a4,8(sp)
    3e30:	40fc8cb3          	sub	s9,s9,a5
    3e34:	40fb0b33          	sub	s6,s6,a5
    3e38:	40f70733          	sub	a4,a4,a5
    3e3c:	00e12423          	sw	a4,8(sp)
    3e40:	02c12783          	lw	a5,44(sp)
    3e44:	02078263          	beqz	a5,3e68 <_dtoa_r+0xaa4>
    3e48:	02012783          	lw	a5,32(sp)
    3e4c:	00078463          	beqz	a5,3e54 <_dtoa_r+0xa90>
    3e50:	060b92e3          	bnez	s7,46b4 <_dtoa_r+0x12f0>
    3e54:	02c12603          	lw	a2,44(sp)
    3e58:	00048593          	mv	a1,s1
    3e5c:	00040513          	mv	a0,s0
    3e60:	590040ef          	jal	ra,83f0 <__pow5mult>
    3e64:	00050493          	mv	s1,a0
    3e68:	00100593          	li	a1,1
    3e6c:	00040513          	mv	a0,s0
    3e70:	29c040ef          	jal	ra,810c <__i2b>
    3e74:	00050b93          	mv	s7,a0
    3e78:	500c1863          	bnez	s8,4388 <_dtoa_r+0xfc4>
    3e7c:	00100793          	li	a5,1
    3e80:	5737d463          	bge	a5,s3,43e8 <_dtoa_r+0x1024>
    3e84:	016787b3          	add	a5,a5,s6
    3e88:	01f7f793          	andi	a5,a5,31
    3e8c:	1e078463          	beqz	a5,4074 <_dtoa_r+0xcb0>
    3e90:	02000713          	li	a4,32
    3e94:	40f70733          	sub	a4,a4,a5
    3e98:	00400693          	li	a3,4
    3e9c:	58e6d863          	bge	a3,a4,442c <_dtoa_r+0x1068>
    3ea0:	01c00713          	li	a4,28
    3ea4:	40f707b3          	sub	a5,a4,a5
    3ea8:	00812703          	lw	a4,8(sp)
    3eac:	00fc8cb3          	add	s9,s9,a5
    3eb0:	00fb0b33          	add	s6,s6,a5
    3eb4:	00f70733          	add	a4,a4,a5
    3eb8:	00e12423          	sw	a4,8(sp)
    3ebc:	00812783          	lw	a5,8(sp)
    3ec0:	14f04263          	bgtz	a5,4004 <_dtoa_r+0xc40>
    3ec4:	01605c63          	blez	s6,3edc <_dtoa_r+0xb18>
    3ec8:	000b8593          	mv	a1,s7
    3ecc:	000b0613          	mv	a2,s6
    3ed0:	00040513          	mv	a0,s0
    3ed4:	66c040ef          	jal	ra,8540 <__lshift>
    3ed8:	00050b93          	mv	s7,a0
    3edc:	03012783          	lw	a5,48(sp)
    3ee0:	12079e63          	bnez	a5,401c <_dtoa_r+0xc58>
    3ee4:	43405863          	blez	s4,4314 <_dtoa_r+0xf50>
    3ee8:	02012783          	lw	a5,32(sp)
    3eec:	24079663          	bnez	a5,4138 <_dtoa_r+0xd74>
    3ef0:	01c12783          	lw	a5,28(sp)
    3ef4:	00178c13          	addi	s8,a5,1
    3ef8:	00100993          	li	s3,1
    3efc:	0200006f          	j	3f1c <_dtoa_r+0xb58>
    3f00:	00048593          	mv	a1,s1
    3f04:	00000693          	li	a3,0
    3f08:	00a00613          	li	a2,10
    3f0c:	00040513          	mv	a0,s0
    3f10:	625030ef          	jal	ra,7d34 <__multadd>
    3f14:	00050493          	mv	s1,a0
    3f18:	00198993          	addi	s3,s3,1
    3f1c:	000b8593          	mv	a1,s7
    3f20:	00048513          	mv	a0,s1
    3f24:	ac4ff0ef          	jal	ra,31e8 <quorem>
    3f28:	03050d13          	addi	s10,a0,48
    3f2c:	013a87b3          	add	a5,s5,s3
    3f30:	ffa78fa3          	sb	s10,-1(a5)
    3f34:	fd49c6e3          	blt	s3,s4,3f00 <_dtoa_r+0xb3c>
    3f38:	00100713          	li	a4,1
    3f3c:	01405463          	blez	s4,3f44 <_dtoa_r+0xb80>
    3f40:	000a0713          	mv	a4,s4
    3f44:	00ea8a33          	add	s4,s5,a4
    3f48:	00000993          	li	s3,0
    3f4c:	00048593          	mv	a1,s1
    3f50:	00100613          	li	a2,1
    3f54:	00040513          	mv	a0,s0
    3f58:	5e8040ef          	jal	ra,8540 <__lshift>
    3f5c:	000b8593          	mv	a1,s7
    3f60:	00050493          	mv	s1,a0
    3f64:	76c040ef          	jal	ra,86d0 <__mcmp>
    3f68:	4ca05a63          	blez	a0,443c <_dtoa_r+0x1078>
    3f6c:	03900693          	li	a3,57
    3f70:	0080006f          	j	3f78 <_dtoa_r+0xbb4>
    3f74:	5d4a8063          	beq	s5,s4,4534 <_dtoa_r+0x1170>
    3f78:	fffa4783          	lbu	a5,-1(s4)
    3f7c:	000a0713          	mv	a4,s4
    3f80:	fffa0a13          	addi	s4,s4,-1
    3f84:	fed788e3          	beq	a5,a3,3f74 <_dtoa_r+0xbb0>
    3f88:	00178793          	addi	a5,a5,1
    3f8c:	00fa0023          	sb	a5,0(s4)
    3f90:	000b8593          	mv	a1,s7
    3f94:	00040513          	mv	a0,s0
    3f98:	00e12423          	sw	a4,8(sp)
    3f9c:	575030ef          	jal	ra,7d10 <_Bfree>
    3fa0:	00812703          	lw	a4,8(sp)
    3fa4:	02090863          	beqz	s2,3fd4 <_dtoa_r+0xc10>
    3fa8:	00098c63          	beqz	s3,3fc0 <_dtoa_r+0xbfc>
    3fac:	01298a63          	beq	s3,s2,3fc0 <_dtoa_r+0xbfc>
    3fb0:	00098593          	mv	a1,s3
    3fb4:	00040513          	mv	a0,s0
    3fb8:	559030ef          	jal	ra,7d10 <_Bfree>
    3fbc:	00812703          	lw	a4,8(sp)
    3fc0:	00090593          	mv	a1,s2
    3fc4:	00040513          	mv	a0,s0
    3fc8:	00e12423          	sw	a4,8(sp)
    3fcc:	545030ef          	jal	ra,7d10 <_Bfree>
    3fd0:	00812703          	lw	a4,8(sp)
    3fd4:	00048593          	mv	a1,s1
    3fd8:	00040513          	mv	a0,s0
    3fdc:	00e12423          	sw	a4,8(sp)
    3fe0:	531030ef          	jal	ra,7d10 <_Bfree>
    3fe4:	00812703          	lw	a4,8(sp)
    3fe8:	00412783          	lw	a5,4(sp)
    3fec:	00070023          	sb	zero,0(a4)
    3ff0:	0187a023          	sw	s8,0(a5)
    3ff4:	00012783          	lw	a5,0(sp)
    3ff8:	cc078463          	beqz	a5,34c0 <_dtoa_r+0xfc>
    3ffc:	00e7a023          	sw	a4,0(a5)
    4000:	cc0ff06f          	j	34c0 <_dtoa_r+0xfc>
    4004:	00048593          	mv	a1,s1
    4008:	00078613          	mv	a2,a5
    400c:	00040513          	mv	a0,s0
    4010:	530040ef          	jal	ra,8540 <__lshift>
    4014:	00050493          	mv	s1,a0
    4018:	eadff06f          	j	3ec4 <_dtoa_r+0xb00>
    401c:	000b8593          	mv	a1,s7
    4020:	00048513          	mv	a0,s1
    4024:	6ac040ef          	jal	ra,86d0 <__mcmp>
    4028:	ea055ee3          	bgez	a0,3ee4 <_dtoa_r+0xb20>
    402c:	00048593          	mv	a1,s1
    4030:	00000693          	li	a3,0
    4034:	00a00613          	li	a2,10
    4038:	00040513          	mv	a0,s0
    403c:	4f9030ef          	jal	ra,7d34 <__multadd>
    4040:	01c12783          	lw	a5,28(sp)
    4044:	00050493          	mv	s1,a0
    4048:	fff78a13          	addi	s4,a5,-1
    404c:	02012783          	lw	a5,32(sp)
    4050:	0c079063          	bnez	a5,4110 <_dtoa_r+0xd4c>
    4054:	04012783          	lw	a5,64(sp)
    4058:	16f054e3          	blez	a5,49c0 <_dtoa_r+0x15fc>
    405c:	01c12c03          	lw	s8,28(sp)
    4060:	00078a13          	mv	s4,a5
    4064:	e95ff06f          	j	3ef8 <_dtoa_r+0xb34>
    4068:	00100793          	li	a5,1
    406c:	02f12823          	sw	a5,48(sp)
    4070:	e00ff06f          	j	3670 <_dtoa_r+0x2ac>
    4074:	01c00793          	li	a5,28
    4078:	e31ff06f          	j	3ea8 <_dtoa_r+0xae4>
    407c:	00100713          	li	a4,1
    4080:	49375663          	bge	a4,s3,450c <_dtoa_r+0x1148>
    4084:	02c12783          	lw	a5,44(sp)
    4088:	fffa0b93          	addi	s7,s4,-1
    408c:	3d77ce63          	blt	a5,s7,4468 <_dtoa_r+0x10a4>
    4090:	41778bb3          	sub	s7,a5,s7
    4094:	00812783          	lw	a5,8(sp)
    4098:	41478cb3          	sub	s9,a5,s4
    409c:	3e0a4a63          	bltz	s4,4490 <_dtoa_r+0x10cc>
    40a0:	00078c93          	mv	s9,a5
    40a4:	014787b3          	add	a5,a5,s4
    40a8:	014b0b33          	add	s6,s6,s4
    40ac:	00f12423          	sw	a5,8(sp)
    40b0:	3e00006f          	j	4490 <_dtoa_r+0x10cc>
    40b4:	40e787b3          	sub	a5,a5,a4
    40b8:	00fd9533          	sll	a0,s11,a5
    40bc:	c98ff06f          	j	3554 <_dtoa_r+0x190>
    40c0:	00300793          	li	a5,3
    40c4:	00100913          	li	s2,1
    40c8:	42f98e63          	beq	s3,a5,4504 <_dtoa_r+0x1140>
    40cc:	df37c863          	blt	a5,s3,36bc <_dtoa_r+0x2f8>
    40d0:	00200793          	li	a5,2
    40d4:	02012023          	sw	zero,32(sp)
    40d8:	16f996e3          	bne	s3,a5,4a44 <_dtoa_r+0x1680>
    40dc:	01012603          	lw	a2,16(sp)
    40e0:	2ec05c63          	blez	a2,43d8 <_dtoa_r+0x1014>
    40e4:	04c12023          	sw	a2,64(sp)
    40e8:	00060a13          	mv	s4,a2
    40ec:	e04ff06f          	j	36f0 <_dtoa_r+0x32c>
    40f0:	02012823          	sw	zero,48(sp)
    40f4:	00012423          	sw	zero,8(sp)
    40f8:	a74044e3          	bgtz	s4,3b60 <_dtoa_r+0x79c>
    40fc:	00100793          	li	a5,1
    4100:	414787b3          	sub	a5,a5,s4
    4104:	00f12423          	sw	a5,8(sp)
    4108:	00000b13          	li	s6,0
    410c:	a55ff06f          	j	3b60 <_dtoa_r+0x79c>
    4110:	00090593          	mv	a1,s2
    4114:	00000693          	li	a3,0
    4118:	00a00613          	li	a2,10
    411c:	00040513          	mv	a0,s0
    4120:	415030ef          	jal	ra,7d34 <__multadd>
    4124:	04012783          	lw	a5,64(sp)
    4128:	00050913          	mv	s2,a0
    412c:	0cf052e3          	blez	a5,49f0 <_dtoa_r+0x162c>
    4130:	01412e23          	sw	s4,28(sp)
    4134:	00078a13          	mv	s4,a5
    4138:	01905c63          	blez	s9,4150 <_dtoa_r+0xd8c>
    413c:	00090593          	mv	a1,s2
    4140:	000c8613          	mv	a2,s9
    4144:	00040513          	mv	a0,s0
    4148:	3f8040ef          	jal	ra,8540 <__lshift>
    414c:	00050913          	mv	s2,a0
    4150:	00090b13          	mv	s6,s2
    4154:	500c1e63          	bnez	s8,4670 <_dtoa_r+0x12ac>
    4158:	02812783          	lw	a5,40(sp)
    415c:	fffa8d13          	addi	s10,s5,-1
    4160:	000a8c93          	mv	s9,s5
    4164:	0017f793          	andi	a5,a5,1
    4168:	014d0d33          	add	s10,s10,s4
    416c:	00f12823          	sw	a5,16(sp)
    4170:	01512a23          	sw	s5,20(sp)
    4174:	01b12c23          	sw	s11,24(sp)
    4178:	000b8593          	mv	a1,s7
    417c:	00048513          	mv	a0,s1
    4180:	868ff0ef          	jal	ra,31e8 <quorem>
    4184:	00050c13          	mv	s8,a0
    4188:	00090593          	mv	a1,s2
    418c:	00048513          	mv	a0,s1
    4190:	540040ef          	jal	ra,86d0 <__mcmp>
    4194:	000b8593          	mv	a1,s7
    4198:	00050a13          	mv	s4,a0
    419c:	000b0613          	mv	a2,s6
    41a0:	00040513          	mv	a0,s0
    41a4:	584040ef          	jal	ra,8728 <__mdiff>
    41a8:	00c52703          	lw	a4,12(a0)
    41ac:	00050593          	mv	a1,a0
    41b0:	030c0a93          	addi	s5,s8,48
    41b4:	08071a63          	bnez	a4,4248 <_dtoa_r+0xe84>
    41b8:	00a12423          	sw	a0,8(sp)
    41bc:	00048513          	mv	a0,s1
    41c0:	510040ef          	jal	ra,86d0 <__mcmp>
    41c4:	00812583          	lw	a1,8(sp)
    41c8:	00050d93          	mv	s11,a0
    41cc:	00040513          	mv	a0,s0
    41d0:	341030ef          	jal	ra,7d10 <_Bfree>
    41d4:	01b9e633          	or	a2,s3,s11
    41d8:	0e061a63          	bnez	a2,42cc <_dtoa_r+0xf08>
    41dc:	01012783          	lw	a5,16(sp)
    41e0:	76078c63          	beqz	a5,4958 <_dtoa_r+0x1594>
    41e4:	780a4663          	bltz	s4,4970 <_dtoa_r+0x15ac>
    41e8:	015c8023          	sb	s5,0(s9)
    41ec:	001c8a13          	addi	s4,s9,1
    41f0:	699d0463          	beq	s10,s9,4878 <_dtoa_r+0x14b4>
    41f4:	00048593          	mv	a1,s1
    41f8:	00000693          	li	a3,0
    41fc:	00a00613          	li	a2,10
    4200:	00040513          	mv	a0,s0
    4204:	331030ef          	jal	ra,7d34 <__multadd>
    4208:	00050493          	mv	s1,a0
    420c:	00090593          	mv	a1,s2
    4210:	00000693          	li	a3,0
    4214:	00a00613          	li	a2,10
    4218:	00040513          	mv	a0,s0
    421c:	09690e63          	beq	s2,s6,42b8 <_dtoa_r+0xef4>
    4220:	315030ef          	jal	ra,7d34 <__multadd>
    4224:	000b0593          	mv	a1,s6
    4228:	00050913          	mv	s2,a0
    422c:	00000693          	li	a3,0
    4230:	00a00613          	li	a2,10
    4234:	00040513          	mv	a0,s0
    4238:	2fd030ef          	jal	ra,7d34 <__multadd>
    423c:	00050b13          	mv	s6,a0
    4240:	000a0c93          	mv	s9,s4
    4244:	f35ff06f          	j	4178 <_dtoa_r+0xdb4>
    4248:	00040513          	mv	a0,s0
    424c:	000a8d13          	mv	s10,s5
    4250:	01812d83          	lw	s11,24(sp)
    4254:	01412a83          	lw	s5,20(sp)
    4258:	2b9030ef          	jal	ra,7d10 <_Bfree>
    425c:	000a4a63          	bltz	s4,4270 <_dtoa_r+0xeac>
    4260:	001df713          	andi	a4,s11,1
    4264:	0149ea33          	or	s4,s3,s4
    4268:	01476733          	or	a4,a4,s4
    426c:	08071063          	bnez	a4,42ec <_dtoa_r+0xf28>
    4270:	00048593          	mv	a1,s1
    4274:	00100613          	li	a2,1
    4278:	00040513          	mv	a0,s0
    427c:	2c4040ef          	jal	ra,8540 <__lshift>
    4280:	000b8593          	mv	a1,s7
    4284:	00050493          	mv	s1,a0
    4288:	448040ef          	jal	ra,86d0 <__mcmp>
    428c:	24a05463          	blez	a0,44d4 <_dtoa_r+0x1110>
    4290:	03900713          	li	a4,57
    4294:	24ed0863          	beq	s10,a4,44e4 <_dtoa_r+0x1120>
    4298:	031c0d13          	addi	s10,s8,49
    429c:	01c12783          	lw	a5,28(sp)
    42a0:	00090993          	mv	s3,s2
    42a4:	001c8713          	addi	a4,s9,1
    42a8:	01ac8023          	sb	s10,0(s9)
    42ac:	00178c13          	addi	s8,a5,1
    42b0:	000b0913          	mv	s2,s6
    42b4:	cddff06f          	j	3f90 <_dtoa_r+0xbcc>
    42b8:	27d030ef          	jal	ra,7d34 <__multadd>
    42bc:	00050913          	mv	s2,a0
    42c0:	00050b13          	mv	s6,a0
    42c4:	000a0c93          	mv	s9,s4
    42c8:	eb1ff06f          	j	4178 <_dtoa_r+0xdb4>
    42cc:	7c0a4663          	bltz	s4,4a98 <_dtoa_r+0x16d4>
    42d0:	01012783          	lw	a5,16(sp)
    42d4:	0149ea33          	or	s4,s3,s4
    42d8:	0147ea33          	or	s4,a5,s4
    42dc:	7a0a0e63          	beqz	s4,4a98 <_dtoa_r+0x16d4>
    42e0:	f1b054e3          	blez	s11,41e8 <_dtoa_r+0xe24>
    42e4:	000a8d13          	mv	s10,s5
    42e8:	01412a83          	lw	s5,20(sp)
    42ec:	03900713          	li	a4,57
    42f0:	1eed0a63          	beq	s10,a4,44e4 <_dtoa_r+0x1120>
    42f4:	01c12683          	lw	a3,28(sp)
    42f8:	001d0793          	addi	a5,s10,1
    42fc:	00090993          	mv	s3,s2
    4300:	001c8713          	addi	a4,s9,1
    4304:	00168c13          	addi	s8,a3,1 # 3ff00001 <_stack+0x3fec0001>
    4308:	00fc8023          	sb	a5,0(s9)
    430c:	000b0913          	mv	s2,s6
    4310:	c81ff06f          	j	3f90 <_dtoa_r+0xbcc>
    4314:	00200793          	li	a5,2
    4318:	bd37d8e3          	bge	a5,s3,3ee8 <_dtoa_r+0xb24>
    431c:	000a8713          	mv	a4,s5
    4320:	9a0a1ee3          	bnez	s4,3cdc <_dtoa_r+0x918>
    4324:	000b8593          	mv	a1,s7
    4328:	00000693          	li	a3,0
    432c:	00500613          	li	a2,5
    4330:	00040513          	mv	a0,s0
    4334:	01512423          	sw	s5,8(sp)
    4338:	1fd030ef          	jal	ra,7d34 <__multadd>
    433c:	00050593          	mv	a1,a0
    4340:	00050b93          	mv	s7,a0
    4344:	00048513          	mv	a0,s1
    4348:	388040ef          	jal	ra,86d0 <__mcmp>
    434c:	00812703          	lw	a4,8(sp)
    4350:	98a056e3          	blez	a0,3cdc <_dtoa_r+0x918>
    4354:	03100793          	li	a5,49
    4358:	00fa8023          	sb	a5,0(s5)
    435c:	01c12783          	lw	a5,28(sp)
    4360:	001a8713          	addi	a4,s5,1
    4364:	00178c13          	addi	s8,a5,1
    4368:	000b8593          	mv	a1,s7
    436c:	00040513          	mv	a0,s0
    4370:	00e12423          	sw	a4,8(sp)
    4374:	19d030ef          	jal	ra,7d10 <_Bfree>
    4378:	00812703          	lw	a4,8(sp)
    437c:	001c0c13          	addi	s8,s8,1
    4380:	c40910e3          	bnez	s2,3fc0 <_dtoa_r+0xbfc>
    4384:	c51ff06f          	j	3fd4 <_dtoa_r+0xc10>
    4388:	00050593          	mv	a1,a0
    438c:	000c0613          	mv	a2,s8
    4390:	00040513          	mv	a0,s0
    4394:	05c040ef          	jal	ra,83f0 <__pow5mult>
    4398:	00100793          	li	a5,1
    439c:	00050b93          	mv	s7,a0
    43a0:	1137d263          	bge	a5,s3,44a4 <_dtoa_r+0x10e0>
    43a4:	00000c13          	li	s8,0
    43a8:	010ba783          	lw	a5,16(s7)
    43ac:	00378793          	addi	a5,a5,3
    43b0:	00279793          	slli	a5,a5,0x2
    43b4:	00fb87b3          	add	a5,s7,a5
    43b8:	0047a503          	lw	a0,4(a5)
    43bc:	3f9030ef          	jal	ra,7fb4 <__hi0bits>
    43c0:	02000793          	li	a5,32
    43c4:	40a787b3          	sub	a5,a5,a0
    43c8:	abdff06f          	j	3e84 <_dtoa_r+0xac0>
    43cc:	00100793          	li	a5,1
    43d0:	02f12023          	sw	a5,32(sp)
    43d4:	d09ff06f          	j	40dc <_dtoa_r+0xd18>
    43d8:	00100793          	li	a5,1
    43dc:	00100a13          	li	s4,1
    43e0:	00f12823          	sw	a5,16(sp)
    43e4:	fa8ff06f          	j	3b8c <_dtoa_r+0x7c8>
    43e8:	02812783          	lw	a5,40(sp)
    43ec:	02079c63          	bnez	a5,4424 <_dtoa_r+0x1060>
    43f0:	00cd1793          	slli	a5,s10,0xc
    43f4:	02079863          	bnez	a5,4424 <_dtoa_r+0x1060>
    43f8:	7ff007b7          	lui	a5,0x7ff00
    43fc:	00fd77b3          	and	a5,s10,a5
    4400:	00000713          	li	a4,0
    4404:	00078c63          	beqz	a5,441c <_dtoa_r+0x1058>
    4408:	00812783          	lw	a5,8(sp)
    440c:	001b0b13          	addi	s6,s6,1
    4410:	00100713          	li	a4,1
    4414:	00178793          	addi	a5,a5,1 # 7ff00001 <_stack+0x7fec0001>
    4418:	00f12423          	sw	a5,8(sp)
    441c:	560c1063          	bnez	s8,497c <_dtoa_r+0x15b8>
    4420:	00070c13          	mv	s8,a4
    4424:	00100793          	li	a5,1
    4428:	a5dff06f          	j	3e84 <_dtoa_r+0xac0>
    442c:	a8d708e3          	beq	a4,a3,3ebc <_dtoa_r+0xaf8>
    4430:	03c00713          	li	a4,60
    4434:	40f707b3          	sub	a5,a4,a5
    4438:	a71ff06f          	j	3ea8 <_dtoa_r+0xae4>
    443c:	00051663          	bnez	a0,4448 <_dtoa_r+0x1084>
    4440:	001d7793          	andi	a5,s10,1
    4444:	b20794e3          	bnez	a5,3f6c <_dtoa_r+0xba8>
    4448:	03000693          	li	a3,48
    444c:	fffa4783          	lbu	a5,-1(s4)
    4450:	000a0713          	mv	a4,s4
    4454:	fffa0a13          	addi	s4,s4,-1
    4458:	fed78ae3          	beq	a5,a3,444c <_dtoa_r+0x1088>
    445c:	b35ff06f          	j	3f90 <_dtoa_r+0xbcc>
    4460:	000b0793          	mv	a5,s6
    4464:	9c9ff06f          	j	3e2c <_dtoa_r+0xa68>
    4468:	02c12783          	lw	a5,44(sp)
    446c:	00812703          	lw	a4,8(sp)
    4470:	03712623          	sw	s7,44(sp)
    4474:	40fb87b3          	sub	a5,s7,a5
    4478:	00fc0c33          	add	s8,s8,a5
    447c:	014707b3          	add	a5,a4,s4
    4480:	00070c93          	mv	s9,a4
    4484:	014b0b33          	add	s6,s6,s4
    4488:	00f12423          	sw	a5,8(sp)
    448c:	00000b93          	li	s7,0
    4490:	00100593          	li	a1,1
    4494:	00040513          	mv	a0,s0
    4498:	475030ef          	jal	ra,810c <__i2b>
    449c:	00050913          	mv	s2,a0
    44a0:	97dff06f          	j	3e1c <_dtoa_r+0xa58>
    44a4:	02812783          	lw	a5,40(sp)
    44a8:	ee079ee3          	bnez	a5,43a4 <_dtoa_r+0xfe0>
    44ac:	00cd1793          	slli	a5,s10,0xc
    44b0:	ee079ae3          	bnez	a5,43a4 <_dtoa_r+0xfe0>
    44b4:	f45ff06f          	j	43f8 <_dtoa_r+0x1034>
    44b8:	01412303          	lw	t1,20(sp)
    44bc:	01812883          	lw	a7,24(sp)
    44c0:	00200913          	li	s2,2
    44c4:	ae8ff06f          	j	37ac <_dtoa_r+0x3e8>
    44c8:	00200993          	li	s3,2
    44cc:	02012023          	sw	zero,32(sp)
    44d0:	c0dff06f          	j	40dc <_dtoa_r+0xd18>
    44d4:	dc0514e3          	bnez	a0,429c <_dtoa_r+0xed8>
    44d8:	001d7713          	andi	a4,s10,1
    44dc:	da071ae3          	bnez	a4,4290 <_dtoa_r+0xecc>
    44e0:	dbdff06f          	j	429c <_dtoa_r+0xed8>
    44e4:	03900793          	li	a5,57
    44e8:	00fc8023          	sb	a5,0(s9)
    44ec:	01c12783          	lw	a5,28(sp)
    44f0:	00090993          	mv	s3,s2
    44f4:	001c8a13          	addi	s4,s9,1
    44f8:	00178c13          	addi	s8,a5,1
    44fc:	000b0913          	mv	s2,s6
    4500:	a6dff06f          	j	3f6c <_dtoa_r+0xba8>
    4504:	02012023          	sw	zero,32(sp)
    4508:	9c8ff06f          	j	36d0 <_dtoa_r+0x30c>
    450c:	03412703          	lw	a4,52(sp)
    4510:	34070063          	beqz	a4,4850 <_dtoa_r+0x148c>
    4514:	00812703          	lw	a4,8(sp)
    4518:	43378793          	addi	a5,a5,1075
    451c:	00fb0b33          	add	s6,s6,a5
    4520:	00f707b3          	add	a5,a4,a5
    4524:	02c12b83          	lw	s7,44(sp)
    4528:	00070c93          	mv	s9,a4
    452c:	00f12423          	sw	a5,8(sp)
    4530:	f61ff06f          	j	4490 <_dtoa_r+0x10cc>
    4534:	03100793          	li	a5,49
    4538:	00fa8023          	sb	a5,0(s5)
    453c:	001c0c13          	addi	s8,s8,1
    4540:	a51ff06f          	j	3f90 <_dtoa_r+0xbcc>
    4544:	01c12783          	lw	a5,28(sp)
    4548:	3c078c63          	beqz	a5,4920 <_dtoa_r+0x155c>
    454c:	40f00cb3          	neg	s9,a5
    4550:	00fcf793          	andi	a5,s9,15
    4554:	00379793          	slli	a5,a5,0x3
    4558:	0001c917          	auipc	s2,0x1c
    455c:	40890913          	addi	s2,s2,1032 # 20960 <__mprec_tens>
    4560:	00f907b3          	add	a5,s2,a5
    4564:	0007a603          	lw	a2,0(a5)
    4568:	0047a683          	lw	a3,4(a5)
    456c:	01412503          	lw	a0,20(sp)
    4570:	01812583          	lw	a1,24(sp)
    4574:	404cdc93          	srai	s9,s9,0x4
    4578:	4540a0ef          	jal	ra,e9cc <__muldf3>
    457c:	480c8863          	beqz	s9,4a0c <_dtoa_r+0x1648>
    4580:	00200913          	li	s2,2
    4584:	000d8713          	mv	a4,s11
    4588:	0001c817          	auipc	a6,0x1c
    458c:	3b080813          	addi	a6,a6,944 # 20938 <__mprec_bigtens>
    4590:	02912c23          	sw	s1,56(sp)
    4594:	04812223          	sw	s0,68(sp)
    4598:	00050793          	mv	a5,a0
    459c:	00090413          	mv	s0,s2
    45a0:	00000693          	li	a3,0
    45a4:	00080493          	mv	s1,a6
    45a8:	00050913          	mv	s2,a0
    45ac:	00058d93          	mv	s11,a1
    45b0:	00070b93          	mv	s7,a4
    45b4:	001cf713          	andi	a4,s9,1
    45b8:	02070063          	beqz	a4,45d8 <_dtoa_r+0x1214>
    45bc:	0044a683          	lw	a3,4(s1)
    45c0:	0004a603          	lw	a2,0(s1)
    45c4:	00078513          	mv	a0,a5
    45c8:	00140413          	addi	s0,s0,1
    45cc:	4000a0ef          	jal	ra,e9cc <__muldf3>
    45d0:	00050793          	mv	a5,a0
    45d4:	00100693          	li	a3,1
    45d8:	401cdc93          	srai	s9,s9,0x1
    45dc:	00848493          	addi	s1,s1,8
    45e0:	fc0c9ae3          	bnez	s9,45b4 <_dtoa_r+0x11f0>
    45e4:	000b8713          	mv	a4,s7
    45e8:	00090513          	mv	a0,s2
    45ec:	00058b93          	mv	s7,a1
    45f0:	00040913          	mv	s2,s0
    45f4:	000d8593          	mv	a1,s11
    45f8:	03812483          	lw	s1,56(sp)
    45fc:	04412403          	lw	s0,68(sp)
    4600:	00070d93          	mv	s11,a4
    4604:	a2069863          	bnez	a3,3834 <_dtoa_r+0x470>
    4608:	00050793          	mv	a5,a0
    460c:	00058b93          	mv	s7,a1
    4610:	a24ff06f          	j	3834 <_dtoa_r+0x470>
    4614:	00070613          	mv	a2,a4
    4618:	00070513          	mv	a0,a4
    461c:	00068593          	mv	a1,a3
    4620:	0d0090ef          	jal	ra,d6f0 <__adddf3>
    4624:	01c12783          	lw	a5,28(sp)
    4628:	00090613          	mv	a2,s2
    462c:	00098693          	mv	a3,s3
    4630:	00178c13          	addi	s8,a5,1
    4634:	00050b13          	mv	s6,a0
    4638:	00058a13          	mv	s4,a1
    463c:	18c0a0ef          	jal	ra,e7c8 <__gedf2>
    4640:	000c0c93          	mv	s9,s8
    4644:	c6a04663          	bgtz	a0,3ab0 <_dtoa_r+0x6ec>
    4648:	000b0513          	mv	a0,s6
    464c:	000a0593          	mv	a1,s4
    4650:	00090613          	mv	a2,s2
    4654:	00098693          	mv	a3,s3
    4658:	0e40a0ef          	jal	ra,e73c <__eqdf2>
    465c:	00051663          	bnez	a0,4668 <_dtoa_r+0x12a4>
    4660:	001d7d13          	andi	s10,s10,1
    4664:	c40d1663          	bnez	s10,3ab0 <_dtoa_r+0x6ec>
    4668:	000b8713          	mv	a4,s7
    466c:	969ff06f          	j	3fd4 <_dtoa_r+0xc10>
    4670:	00492583          	lw	a1,4(s2)
    4674:	00040513          	mv	a0,s0
    4678:	5f0030ef          	jal	ra,7c68 <_Balloc>
    467c:	00050b13          	mv	s6,a0
    4680:	3e050e63          	beqz	a0,4a7c <_dtoa_r+0x16b8>
    4684:	01092603          	lw	a2,16(s2)
    4688:	00c90593          	addi	a1,s2,12
    468c:	00c50513          	addi	a0,a0,12
    4690:	00260613          	addi	a2,a2,2
    4694:	00261613          	slli	a2,a2,0x2
    4698:	338030ef          	jal	ra,79d0 <memcpy>
    469c:	000b0593          	mv	a1,s6
    46a0:	00100613          	li	a2,1
    46a4:	00040513          	mv	a0,s0
    46a8:	699030ef          	jal	ra,8540 <__lshift>
    46ac:	00050b13          	mv	s6,a0
    46b0:	aa9ff06f          	j	4158 <_dtoa_r+0xd94>
    46b4:	00090593          	mv	a1,s2
    46b8:	000b8613          	mv	a2,s7
    46bc:	00040513          	mv	a0,s0
    46c0:	531030ef          	jal	ra,83f0 <__pow5mult>
    46c4:	00048613          	mv	a2,s1
    46c8:	00050593          	mv	a1,a0
    46cc:	00050913          	mv	s2,a0
    46d0:	00040513          	mv	a0,s0
    46d4:	2e9030ef          	jal	ra,81bc <__multiply>
    46d8:	02c12783          	lw	a5,44(sp)
    46dc:	00a12a23          	sw	a0,20(sp)
    46e0:	00048593          	mv	a1,s1
    46e4:	41778bb3          	sub	s7,a5,s7
    46e8:	00040513          	mv	a0,s0
    46ec:	03712623          	sw	s7,44(sp)
    46f0:	620030ef          	jal	ra,7d10 <_Bfree>
    46f4:	01412783          	lw	a5,20(sp)
    46f8:	00078493          	mv	s1,a5
    46fc:	f60b8663          	beqz	s7,3e68 <_dtoa_r+0xaa4>
    4700:	f54ff06f          	j	3e54 <_dtoa_r+0xa90>
    4704:	05012603          	lw	a2,80(sp)
    4708:	05412683          	lw	a3,84(sp)
    470c:	04b12423          	sw	a1,72(sp)
    4710:	00078513          	mv	a0,a5
    4714:	000b8593          	mv	a1,s7
    4718:	03012a23          	sw	a6,52(sp)
    471c:	02e12023          	sw	a4,32(sp)
    4720:	2ac0a0ef          	jal	ra,e9cc <__muldf3>
    4724:	03412803          	lw	a6,52(sp)
    4728:	04412783          	lw	a5,68(sp)
    472c:	00100693          	li	a3,1
    4730:	010a8023          	sb	a6,0(s5)
    4734:	02a12a23          	sw	a0,52(sp)
    4738:	02b12c23          	sw	a1,56(sp)
    473c:	02012703          	lw	a4,32(sp)
    4740:	04812883          	lw	a7,72(sp)
    4744:	00fa8bb3          	add	s7,s5,a5
    4748:	0001c617          	auipc	a2,0x1c
    474c:	91060613          	addi	a2,a2,-1776 # 20058 <__DTOR_END__+0x48>
    4750:	2ad78a63          	beq	a5,a3,4a04 <_dtoa_r+0x1640>
    4754:	00062783          	lw	a5,0(a2)
    4758:	00462803          	lw	a6,4(a2)
    475c:	04812423          	sw	s0,72(sp)
    4760:	02f12023          	sw	a5,32(sp)
    4764:	03012223          	sw	a6,36(sp)
    4768:	04912223          	sw	s1,68(sp)
    476c:	00070413          	mv	s0,a4
    4770:	05212623          	sw	s2,76(sp)
    4774:	000c8513          	mv	a0,s9
    4778:	00088593          	mv	a1,a7
    477c:	02012603          	lw	a2,32(sp)
    4780:	02412683          	lw	a3,36(sp)
    4784:	00140413          	addi	s0,s0,1
    4788:	2440a0ef          	jal	ra,e9cc <__muldf3>
    478c:	00058493          	mv	s1,a1
    4790:	00050913          	mv	s2,a0
    4794:	2c40b0ef          	jal	ra,fa58 <__fixdfsi>
    4798:	00050c93          	mv	s9,a0
    479c:	3400b0ef          	jal	ra,fadc <__floatsidf>
    47a0:	00050613          	mv	a2,a0
    47a4:	00058693          	mv	a3,a1
    47a8:	00090513          	mv	a0,s2
    47ac:	00048593          	mv	a1,s1
    47b0:	030c8c93          	addi	s9,s9,48
    47b4:	13d0a0ef          	jal	ra,f0f0 <__subdf3>
    47b8:	ff940fa3          	sb	s9,-1(s0)
    47bc:	fd7410e3          	bne	s0,s7,477c <_dtoa_r+0x13b8>
    47c0:	04412483          	lw	s1,68(sp)
    47c4:	04812403          	lw	s0,72(sp)
    47c8:	04c12903          	lw	s2,76(sp)
    47cc:	00050c93          	mv	s9,a0
    47d0:	00058893          	mv	a7,a1
    47d4:	0001c797          	auipc	a5,0x1c
    47d8:	85478793          	addi	a5,a5,-1964 # 20028 <__DTOR_END__+0x18>
    47dc:	0007a603          	lw	a2,0(a5)
    47e0:	0047a683          	lw	a3,4(a5)
    47e4:	03412503          	lw	a0,52(sp)
    47e8:	03812583          	lw	a1,56(sp)
    47ec:	03112023          	sw	a7,32(sp)
    47f0:	701080ef          	jal	ra,d6f0 <__adddf3>
    47f4:	02012883          	lw	a7,32(sp)
    47f8:	000c8613          	mv	a2,s9
    47fc:	00088693          	mv	a3,a7
    4800:	0cc0a0ef          	jal	ra,e8cc <__ledf2>
    4804:	18054063          	bltz	a0,4984 <_dtoa_r+0x15c0>
    4808:	0001c797          	auipc	a5,0x1c
    480c:	82078793          	addi	a5,a5,-2016 # 20028 <__DTOR_END__+0x18>
    4810:	03412603          	lw	a2,52(sp)
    4814:	03812683          	lw	a3,56(sp)
    4818:	0007a503          	lw	a0,0(a5)
    481c:	0047a583          	lw	a1,4(a5)
    4820:	0d10a0ef          	jal	ra,f0f0 <__subdf3>
    4824:	02012883          	lw	a7,32(sp)
    4828:	000c8613          	mv	a2,s9
    482c:	00088693          	mv	a3,a7
    4830:	799090ef          	jal	ra,e7c8 <__gedf2>
    4834:	16a04a63          	bgtz	a0,49a8 <_dtoa_r+0x15e4>
    4838:	06c12783          	lw	a5,108(sp)
    483c:	dc07c863          	bltz	a5,3e0c <_dtoa_r+0xa48>
    4840:	01c12703          	lw	a4,28(sp)
    4844:	00e00793          	li	a5,14
    4848:	dce7c263          	blt	a5,a4,3e0c <_dtoa_r+0xa48>
    484c:	c2cff06f          	j	3c78 <_dtoa_r+0x8b4>
    4850:	06812703          	lw	a4,104(sp)
    4854:	00812683          	lw	a3,8(sp)
    4858:	03600793          	li	a5,54
    485c:	40e787b3          	sub	a5,a5,a4
    4860:	00fb0b33          	add	s6,s6,a5
    4864:	00f687b3          	add	a5,a3,a5
    4868:	02c12b83          	lw	s7,44(sp)
    486c:	00068c93          	mv	s9,a3
    4870:	00f12423          	sw	a5,8(sp)
    4874:	c1dff06f          	j	4490 <_dtoa_r+0x10cc>
    4878:	01c12783          	lw	a5,28(sp)
    487c:	000a8d13          	mv	s10,s5
    4880:	00090993          	mv	s3,s2
    4884:	01412a83          	lw	s5,20(sp)
    4888:	00178c13          	addi	s8,a5,1
    488c:	000b0913          	mv	s2,s6
    4890:	ebcff06f          	j	3f4c <_dtoa_r+0xb88>
    4894:	b20a0263          	beqz	s4,3bb8 <_dtoa_r+0x7f4>
    4898:	04012c83          	lw	s9,64(sp)
    489c:	bd905063          	blez	s9,3c5c <_dtoa_r+0x898>
    48a0:	0001b617          	auipc	a2,0x1b
    48a4:	7b860613          	addi	a2,a2,1976 # 20058 <__DTOR_END__+0x48>
    48a8:	00462683          	lw	a3,4(a2)
    48ac:	00062603          	lw	a2,0(a2)
    48b0:	00078513          	mv	a0,a5
    48b4:	000b8593          	mv	a1,s7
    48b8:	1140a0ef          	jal	ra,e9cc <__muldf3>
    48bc:	00050793          	mv	a5,a0
    48c0:	00190513          	addi	a0,s2,1
    48c4:	02f12c23          	sw	a5,56(sp)
    48c8:	00058b93          	mv	s7,a1
    48cc:	2100b0ef          	jal	ra,fadc <__floatsidf>
    48d0:	03812783          	lw	a5,56(sp)
    48d4:	000b8693          	mv	a3,s7
    48d8:	00078613          	mv	a2,a5
    48dc:	04f12423          	sw	a5,72(sp)
    48e0:	0ec0a0ef          	jal	ra,e9cc <__muldf3>
    48e4:	0001b717          	auipc	a4,0x1b
    48e8:	77c70713          	addi	a4,a4,1916 # 20060 <__DTOR_END__+0x50>
    48ec:	01c12783          	lw	a5,28(sp)
    48f0:	00072603          	lw	a2,0(a4)
    48f4:	00472683          	lw	a3,4(a4)
    48f8:	fff78793          	addi	a5,a5,-1
    48fc:	04f12c23          	sw	a5,88(sp)
    4900:	05912223          	sw	s9,68(sp)
    4904:	5ed080ef          	jal	ra,d6f0 <__adddf3>
    4908:	fcc00737          	lui	a4,0xfcc00
    490c:	00b707b3          	add	a5,a4,a1
    4910:	02f12c23          	sw	a5,56(sp)
    4914:	00050c93          	mv	s9,a0
    4918:	04812783          	lw	a5,72(sp)
    491c:	fa5fe06f          	j	38c0 <_dtoa_r+0x4fc>
    4920:	01412783          	lw	a5,20(sp)
    4924:	01812b83          	lw	s7,24(sp)
    4928:	00200913          	li	s2,2
    492c:	f09fe06f          	j	3834 <_dtoa_r+0x470>
    4930:	03100693          	li	a3,49
    4934:	001c8c93          	addi	s9,s9,1
    4938:	99cff06f          	j	3ad4 <_dtoa_r+0x710>
    493c:	00000b93          	li	s7,0
    4940:	00000913          	li	s2,0
    4944:	a11ff06f          	j	4354 <_dtoa_r+0xf90>
    4948:	000b0713          	mv	a4,s6
    494c:	05812783          	lw	a5,88(sp)
    4950:	00178c13          	addi	s8,a5,1
    4954:	e80ff06f          	j	3fd4 <_dtoa_r+0xc10>
    4958:	000a8d13          	mv	s10,s5
    495c:	03900713          	li	a4,57
    4960:	01412a83          	lw	s5,20(sp)
    4964:	b8ed00e3          	beq	s10,a4,44e4 <_dtoa_r+0x1120>
    4968:	934048e3          	bgtz	s4,4298 <_dtoa_r+0xed4>
    496c:	931ff06f          	j	429c <_dtoa_r+0xed8>
    4970:	000a8d13          	mv	s10,s5
    4974:	01412a83          	lw	s5,20(sp)
    4978:	925ff06f          	j	429c <_dtoa_r+0xed8>
    497c:	00070c13          	mv	s8,a4
    4980:	a29ff06f          	j	43a8 <_dtoa_r+0xfe4>
    4984:	05812783          	lw	a5,88(sp)
    4988:	00178c93          	addi	s9,a5,1
    498c:	924ff06f          	j	3ab0 <_dtoa_r+0x6ec>
    4990:	04812c03          	lw	s8,72(sp)
    4994:	04c12b03          	lw	s6,76(sp)
    4998:	05012a03          	lw	s4,80(sp)
    499c:	04412983          	lw	s3,68(sp)
    49a0:	05c12d03          	lw	s10,92(sp)
    49a4:	ab8ff06f          	j	3c5c <_dtoa_r+0x898>
    49a8:	03000613          	li	a2,48
    49ac:	fffbc783          	lbu	a5,-1(s7)
    49b0:	000b8713          	mv	a4,s7
    49b4:	fffb8b93          	addi	s7,s7,-1
    49b8:	fec78ae3          	beq	a5,a2,49ac <_dtoa_r+0x15e8>
    49bc:	f91ff06f          	j	494c <_dtoa_r+0x1588>
    49c0:	00200793          	li	a5,2
    49c4:	0337c063          	blt	a5,s3,49e4 <_dtoa_r+0x1620>
    49c8:	000b8593          	mv	a1,s7
    49cc:	81dfe0ef          	jal	ra,31e8 <quorem>
    49d0:	03050d13          	addi	s10,a0,48
    49d4:	01c12c03          	lw	s8,28(sp)
    49d8:	04012a03          	lw	s4,64(sp)
    49dc:	01aa8023          	sb	s10,0(s5)
    49e0:	d58ff06f          	j	3f38 <_dtoa_r+0xb74>
    49e4:	01412e23          	sw	s4,28(sp)
    49e8:	04012a03          	lw	s4,64(sp)
    49ec:	931ff06f          	j	431c <_dtoa_r+0xf58>
    49f0:	00200793          	li	a5,2
    49f4:	ff37c8e3          	blt	a5,s3,49e4 <_dtoa_r+0x1620>
    49f8:	01412e23          	sw	s4,28(sp)
    49fc:	04012a03          	lw	s4,64(sp)
    4a00:	f38ff06f          	j	4138 <_dtoa_r+0xd74>
    4a04:	00070b93          	mv	s7,a4
    4a08:	dcdff06f          	j	47d4 <_dtoa_r+0x1410>
    4a0c:	00050793          	mv	a5,a0
    4a10:	00058b93          	mv	s7,a1
    4a14:	00200913          	li	s2,2
    4a18:	e1dfe06f          	j	3834 <_dtoa_r+0x470>
    4a1c:	0001c697          	auipc	a3,0x1c
    4a20:	8f068693          	addi	a3,a3,-1808 # 2030c <blanks.1+0x20>
    4a24:	00000613          	li	a2,0
    4a28:	1aa00593          	li	a1,426
    4a2c:	0001c517          	auipc	a0,0x1c
    4a30:	8f450513          	addi	a0,a0,-1804 # 20320 <blanks.1+0x34>
    4a34:	695060ef          	jal	ra,b8c8 <__assert_func>
    4a38:	04042223          	sw	zero,68(s0)
    4a3c:	00000593          	li	a1,0
    4a40:	cddfe06f          	j	371c <_dtoa_r+0x358>
    4a44:	04042223          	sw	zero,68(s0)
    4a48:	00000593          	li	a1,0
    4a4c:	00040513          	mv	a0,s0
    4a50:	218030ef          	jal	ra,7c68 <_Balloc>
    4a54:	00050a93          	mv	s5,a0
    4a58:	fc0502e3          	beqz	a0,4a1c <_dtoa_r+0x1658>
    4a5c:	00100793          	li	a5,1
    4a60:	02f12023          	sw	a5,32(sp)
    4a64:	fff00793          	li	a5,-1
    4a68:	04a42023          	sw	a0,64(s0)
    4a6c:	04f12023          	sw	a5,64(sp)
    4a70:	00012823          	sw	zero,16(sp)
    4a74:	fff00a13          	li	s4,-1
    4a78:	9e4ff06f          	j	3c5c <_dtoa_r+0x898>
    4a7c:	0001c697          	auipc	a3,0x1c
    4a80:	89068693          	addi	a3,a3,-1904 # 2030c <blanks.1+0x20>
    4a84:	00000613          	li	a2,0
    4a88:	2ea00593          	li	a1,746
    4a8c:	0001c517          	auipc	a0,0x1c
    4a90:	89450513          	addi	a0,a0,-1900 # 20320 <blanks.1+0x34>
    4a94:	635060ef          	jal	ra,b8c8 <__assert_func>
    4a98:	000a8d13          	mv	s10,s5
    4a9c:	01412a83          	lw	s5,20(sp)
    4aa0:	ffb05e63          	blez	s11,429c <_dtoa_r+0xed8>
    4aa4:	fccff06f          	j	4270 <_dtoa_r+0xeac>

00004aa8 <__sflush_r>:
    4aa8:	00c59783          	lh	a5,12(a1)
    4aac:	fe010113          	addi	sp,sp,-32
    4ab0:	00812c23          	sw	s0,24(sp)
    4ab4:	01312623          	sw	s3,12(sp)
    4ab8:	00112e23          	sw	ra,28(sp)
    4abc:	00912a23          	sw	s1,20(sp)
    4ac0:	01212823          	sw	s2,16(sp)
    4ac4:	0087f713          	andi	a4,a5,8
    4ac8:	00058413          	mv	s0,a1
    4acc:	00050993          	mv	s3,a0
    4ad0:	12071263          	bnez	a4,4bf4 <__sflush_r+0x14c>
    4ad4:	00001737          	lui	a4,0x1
    4ad8:	80070713          	addi	a4,a4,-2048 # 800 <_vfprintf_r+0x62c>
    4adc:	0045a683          	lw	a3,4(a1)
    4ae0:	00e7e733          	or	a4,a5,a4
    4ae4:	00e59623          	sh	a4,12(a1)
    4ae8:	18d05863          	blez	a3,4c78 <__sflush_r+0x1d0>
    4aec:	02842803          	lw	a6,40(s0)
    4af0:	0e080263          	beqz	a6,4bd4 <__sflush_r+0x12c>
    4af4:	00c7d793          	srli	a5,a5,0xc
    4af8:	0009a483          	lw	s1,0(s3)
    4afc:	0017f793          	andi	a5,a5,1
    4b00:	0009a023          	sw	zero,0(s3)
    4b04:	01c42583          	lw	a1,28(s0)
    4b08:	18079063          	bnez	a5,4c88 <__sflush_r+0x1e0>
    4b0c:	00000613          	li	a2,0
    4b10:	00100693          	li	a3,1
    4b14:	00098513          	mv	a0,s3
    4b18:	000800e7          	jalr	a6
    4b1c:	fff00793          	li	a5,-1
    4b20:	00050613          	mv	a2,a0
    4b24:	1af50063          	beq	a0,a5,4cc4 <__sflush_r+0x21c>
    4b28:	00c41703          	lh	a4,12(s0)
    4b2c:	02842803          	lw	a6,40(s0)
    4b30:	01c42583          	lw	a1,28(s0)
    4b34:	00477713          	andi	a4,a4,4
    4b38:	00070e63          	beqz	a4,4b54 <__sflush_r+0xac>
    4b3c:	00442703          	lw	a4,4(s0)
    4b40:	03042783          	lw	a5,48(s0)
    4b44:	40e60633          	sub	a2,a2,a4
    4b48:	00078663          	beqz	a5,4b54 <__sflush_r+0xac>
    4b4c:	03c42783          	lw	a5,60(s0)
    4b50:	40f60633          	sub	a2,a2,a5
    4b54:	00000693          	li	a3,0
    4b58:	00098513          	mv	a0,s3
    4b5c:	000800e7          	jalr	a6
    4b60:	fff00793          	li	a5,-1
    4b64:	12f51663          	bne	a0,a5,4c90 <__sflush_r+0x1e8>
    4b68:	0009a683          	lw	a3,0(s3)
    4b6c:	01d00793          	li	a5,29
    4b70:	0cd7ee63          	bltu	a5,a3,4c4c <__sflush_r+0x1a4>
    4b74:	dfc00737          	lui	a4,0xdfc00
    4b78:	ffe70713          	addi	a4,a4,-2 # dfbffffe <_stack+0xdfbbfffe>
    4b7c:	40d75733          	sra	a4,a4,a3
    4b80:	00177713          	andi	a4,a4,1
    4b84:	00c41783          	lh	a5,12(s0)
    4b88:	0c071463          	bnez	a4,4c50 <__sflush_r+0x1a8>
    4b8c:	01042603          	lw	a2,16(s0)
    4b90:	fffff737          	lui	a4,0xfffff
    4b94:	7ff70713          	addi	a4,a4,2047 # fffff7ff <_stack+0xfffbf7ff>
    4b98:	00e7f733          	and	a4,a5,a4
    4b9c:	00c7d793          	srli	a5,a5,0xc
    4ba0:	00e41623          	sh	a4,12(s0)
    4ba4:	00042223          	sw	zero,4(s0)
    4ba8:	00c42023          	sw	a2,0(s0)
    4bac:	0017f793          	andi	a5,a5,1
    4bb0:	12079c63          	bnez	a5,4ce8 <__sflush_r+0x240>
    4bb4:	03042583          	lw	a1,48(s0)
    4bb8:	0099a023          	sw	s1,0(s3)
    4bbc:	00058c63          	beqz	a1,4bd4 <__sflush_r+0x12c>
    4bc0:	04040793          	addi	a5,s0,64
    4bc4:	00f58663          	beq	a1,a5,4bd0 <__sflush_r+0x128>
    4bc8:	00098513          	mv	a0,s3
    4bcc:	0bd000ef          	jal	ra,5488 <_free_r>
    4bd0:	02042823          	sw	zero,48(s0)
    4bd4:	00000513          	li	a0,0
    4bd8:	01c12083          	lw	ra,28(sp)
    4bdc:	01812403          	lw	s0,24(sp)
    4be0:	01412483          	lw	s1,20(sp)
    4be4:	01012903          	lw	s2,16(sp)
    4be8:	00c12983          	lw	s3,12(sp)
    4bec:	02010113          	addi	sp,sp,32
    4bf0:	00008067          	ret
    4bf4:	0105a903          	lw	s2,16(a1)
    4bf8:	fc090ee3          	beqz	s2,4bd4 <__sflush_r+0x12c>
    4bfc:	0005a483          	lw	s1,0(a1)
    4c00:	0037f793          	andi	a5,a5,3
    4c04:	0125a023          	sw	s2,0(a1)
    4c08:	412484b3          	sub	s1,s1,s2
    4c0c:	00000713          	li	a4,0
    4c10:	00079463          	bnez	a5,4c18 <__sflush_r+0x170>
    4c14:	0145a703          	lw	a4,20(a1)
    4c18:	00e42423          	sw	a4,8(s0)
    4c1c:	00904863          	bgtz	s1,4c2c <__sflush_r+0x184>
    4c20:	fb5ff06f          	j	4bd4 <__sflush_r+0x12c>
    4c24:	00a90933          	add	s2,s2,a0
    4c28:	fa9056e3          	blez	s1,4bd4 <__sflush_r+0x12c>
    4c2c:	02442783          	lw	a5,36(s0)
    4c30:	01c42583          	lw	a1,28(s0)
    4c34:	00048693          	mv	a3,s1
    4c38:	00090613          	mv	a2,s2
    4c3c:	00098513          	mv	a0,s3
    4c40:	000780e7          	jalr	a5
    4c44:	40a484b3          	sub	s1,s1,a0
    4c48:	fca04ee3          	bgtz	a0,4c24 <__sflush_r+0x17c>
    4c4c:	00c41783          	lh	a5,12(s0)
    4c50:	0407e793          	ori	a5,a5,64
    4c54:	01c12083          	lw	ra,28(sp)
    4c58:	00f41623          	sh	a5,12(s0)
    4c5c:	01812403          	lw	s0,24(sp)
    4c60:	01412483          	lw	s1,20(sp)
    4c64:	01012903          	lw	s2,16(sp)
    4c68:	00c12983          	lw	s3,12(sp)
    4c6c:	fff00513          	li	a0,-1
    4c70:	02010113          	addi	sp,sp,32
    4c74:	00008067          	ret
    4c78:	03c5a683          	lw	a3,60(a1)
    4c7c:	e6d048e3          	bgtz	a3,4aec <__sflush_r+0x44>
    4c80:	00000513          	li	a0,0
    4c84:	f55ff06f          	j	4bd8 <__sflush_r+0x130>
    4c88:	05042603          	lw	a2,80(s0)
    4c8c:	ea9ff06f          	j	4b34 <__sflush_r+0x8c>
    4c90:	00c41783          	lh	a5,12(s0)
    4c94:	01042683          	lw	a3,16(s0)
    4c98:	fffff737          	lui	a4,0xfffff
    4c9c:	7ff70713          	addi	a4,a4,2047 # fffff7ff <_stack+0xfffbf7ff>
    4ca0:	00e7f733          	and	a4,a5,a4
    4ca4:	00c7d793          	srli	a5,a5,0xc
    4ca8:	00e41623          	sh	a4,12(s0)
    4cac:	00042223          	sw	zero,4(s0)
    4cb0:	00d42023          	sw	a3,0(s0)
    4cb4:	0017f793          	andi	a5,a5,1
    4cb8:	ee078ee3          	beqz	a5,4bb4 <__sflush_r+0x10c>
    4cbc:	04a42823          	sw	a0,80(s0)
    4cc0:	ef5ff06f          	j	4bb4 <__sflush_r+0x10c>
    4cc4:	0009a783          	lw	a5,0(s3)
    4cc8:	e60780e3          	beqz	a5,4b28 <__sflush_r+0x80>
    4ccc:	01d00713          	li	a4,29
    4cd0:	00e78663          	beq	a5,a4,4cdc <__sflush_r+0x234>
    4cd4:	01600713          	li	a4,22
    4cd8:	f6e79ae3          	bne	a5,a4,4c4c <__sflush_r+0x1a4>
    4cdc:	0099a023          	sw	s1,0(s3)
    4ce0:	00000513          	li	a0,0
    4ce4:	ef5ff06f          	j	4bd8 <__sflush_r+0x130>
    4ce8:	ec0696e3          	bnez	a3,4bb4 <__sflush_r+0x10c>
    4cec:	04a42823          	sw	a0,80(s0)
    4cf0:	ec5ff06f          	j	4bb4 <__sflush_r+0x10c>

00004cf4 <_fflush_r>:
    4cf4:	ff010113          	addi	sp,sp,-16
    4cf8:	00812423          	sw	s0,8(sp)
    4cfc:	00912223          	sw	s1,4(sp)
    4d00:	00112623          	sw	ra,12(sp)
    4d04:	01212023          	sw	s2,0(sp)
    4d08:	00050493          	mv	s1,a0
    4d0c:	00058413          	mv	s0,a1
    4d10:	00050663          	beqz	a0,4d1c <_fflush_r+0x28>
    4d14:	03852783          	lw	a5,56(a0)
    4d18:	06078463          	beqz	a5,4d80 <_fflush_r+0x8c>
    4d1c:	00c41783          	lh	a5,12(s0)
    4d20:	00000913          	li	s2,0
    4d24:	04078063          	beqz	a5,4d64 <_fflush_r+0x70>
    4d28:	06442703          	lw	a4,100(s0)
    4d2c:	00177713          	andi	a4,a4,1
    4d30:	00071663          	bnez	a4,4d3c <_fflush_r+0x48>
    4d34:	2007f793          	andi	a5,a5,512
    4d38:	04078863          	beqz	a5,4d88 <_fflush_r+0x94>
    4d3c:	00040593          	mv	a1,s0
    4d40:	00048513          	mv	a0,s1
    4d44:	d65ff0ef          	jal	ra,4aa8 <__sflush_r>
    4d48:	06442783          	lw	a5,100(s0)
    4d4c:	00050913          	mv	s2,a0
    4d50:	0017f793          	andi	a5,a5,1
    4d54:	00079863          	bnez	a5,4d64 <_fflush_r+0x70>
    4d58:	00c45783          	lhu	a5,12(s0)
    4d5c:	2007f793          	andi	a5,a5,512
    4d60:	04078863          	beqz	a5,4db0 <_fflush_r+0xbc>
    4d64:	00c12083          	lw	ra,12(sp)
    4d68:	00812403          	lw	s0,8(sp)
    4d6c:	00412483          	lw	s1,4(sp)
    4d70:	00090513          	mv	a0,s2
    4d74:	00012903          	lw	s2,0(sp)
    4d78:	01010113          	addi	sp,sp,16
    4d7c:	00008067          	ret
    4d80:	22c000ef          	jal	ra,4fac <__sinit>
    4d84:	f99ff06f          	j	4d1c <_fflush_r+0x28>
    4d88:	05842503          	lw	a0,88(s0)
    4d8c:	071010ef          	jal	ra,65fc <__retarget_lock_acquire_recursive>
    4d90:	00040593          	mv	a1,s0
    4d94:	00048513          	mv	a0,s1
    4d98:	d11ff0ef          	jal	ra,4aa8 <__sflush_r>
    4d9c:	06442783          	lw	a5,100(s0)
    4da0:	00050913          	mv	s2,a0
    4da4:	0017f793          	andi	a5,a5,1
    4da8:	fa079ee3          	bnez	a5,4d64 <_fflush_r+0x70>
    4dac:	fadff06f          	j	4d58 <_fflush_r+0x64>
    4db0:	05842503          	lw	a0,88(s0)
    4db4:	061010ef          	jal	ra,6614 <__retarget_lock_release_recursive>
    4db8:	00c12083          	lw	ra,12(sp)
    4dbc:	00812403          	lw	s0,8(sp)
    4dc0:	00412483          	lw	s1,4(sp)
    4dc4:	00090513          	mv	a0,s2
    4dc8:	00012903          	lw	s2,0(sp)
    4dcc:	01010113          	addi	sp,sp,16
    4dd0:	00008067          	ret

00004dd4 <fflush>:
    4dd4:	0a050c63          	beqz	a0,4e8c <fflush+0xb8>
    4dd8:	ff010113          	addi	sp,sp,-16
    4ddc:	00812423          	sw	s0,8(sp)
    4de0:	01212023          	sw	s2,0(sp)
    4de4:	00112623          	sw	ra,12(sp)
    4de8:	00912223          	sw	s1,4(sp)
    4dec:	0001b917          	auipc	s2,0x1b
    4df0:	29492903          	lw	s2,660(s2) # 20080 <_impure_ptr>
    4df4:	00050413          	mv	s0,a0
    4df8:	00090663          	beqz	s2,4e04 <fflush+0x30>
    4dfc:	03892783          	lw	a5,56(s2)
    4e00:	06078463          	beqz	a5,4e68 <fflush+0x94>
    4e04:	00c41783          	lh	a5,12(s0)
    4e08:	00000493          	li	s1,0
    4e0c:	04078063          	beqz	a5,4e4c <fflush+0x78>
    4e10:	06442703          	lw	a4,100(s0)
    4e14:	00177713          	andi	a4,a4,1
    4e18:	00071663          	bnez	a4,4e24 <fflush+0x50>
    4e1c:	2007f793          	andi	a5,a5,512
    4e20:	04078a63          	beqz	a5,4e74 <fflush+0xa0>
    4e24:	00040593          	mv	a1,s0
    4e28:	00090513          	mv	a0,s2
    4e2c:	c7dff0ef          	jal	ra,4aa8 <__sflush_r>
    4e30:	06442783          	lw	a5,100(s0)
    4e34:	00050493          	mv	s1,a0
    4e38:	0017f793          	andi	a5,a5,1
    4e3c:	00079863          	bnez	a5,4e4c <fflush+0x78>
    4e40:	00c45783          	lhu	a5,12(s0)
    4e44:	2007f793          	andi	a5,a5,512
    4e48:	02078c63          	beqz	a5,4e80 <fflush+0xac>
    4e4c:	00c12083          	lw	ra,12(sp)
    4e50:	00812403          	lw	s0,8(sp)
    4e54:	00012903          	lw	s2,0(sp)
    4e58:	00048513          	mv	a0,s1
    4e5c:	00412483          	lw	s1,4(sp)
    4e60:	01010113          	addi	sp,sp,16
    4e64:	00008067          	ret
    4e68:	00090513          	mv	a0,s2
    4e6c:	140000ef          	jal	ra,4fac <__sinit>
    4e70:	f95ff06f          	j	4e04 <fflush+0x30>
    4e74:	05842503          	lw	a0,88(s0)
    4e78:	784010ef          	jal	ra,65fc <__retarget_lock_acquire_recursive>
    4e7c:	fa9ff06f          	j	4e24 <fflush+0x50>
    4e80:	05842503          	lw	a0,88(s0)
    4e84:	790010ef          	jal	ra,6614 <__retarget_lock_release_recursive>
    4e88:	fc5ff06f          	j	4e4c <fflush+0x78>
    4e8c:	00000597          	auipc	a1,0x0
    4e90:	e6858593          	addi	a1,a1,-408 # 4cf4 <_fflush_r>
    4e94:	0001b517          	auipc	a0,0x1b
    4e98:	1dc52503          	lw	a0,476(a0) # 20070 <_global_impure_ptr>
    4e9c:	19d0006f          	j	5838 <_fwalk_reent>

00004ea0 <_cleanup_r>:
    4ea0:	00007597          	auipc	a1,0x7
    4ea4:	bf058593          	addi	a1,a1,-1040 # ba90 <_fclose_r>
    4ea8:	1910006f          	j	5838 <_fwalk_reent>

00004eac <__fp_lock>:
    4eac:	06452783          	lw	a5,100(a0)
    4eb0:	0017f793          	andi	a5,a5,1
    4eb4:	00079863          	bnez	a5,4ec4 <__fp_lock+0x18>
    4eb8:	00c55783          	lhu	a5,12(a0)
    4ebc:	2007f793          	andi	a5,a5,512
    4ec0:	00078663          	beqz	a5,4ecc <__fp_lock+0x20>
    4ec4:	00000513          	li	a0,0
    4ec8:	00008067          	ret
    4ecc:	05852503          	lw	a0,88(a0)
    4ed0:	ff010113          	addi	sp,sp,-16
    4ed4:	00112623          	sw	ra,12(sp)
    4ed8:	724010ef          	jal	ra,65fc <__retarget_lock_acquire_recursive>
    4edc:	00c12083          	lw	ra,12(sp)
    4ee0:	00000513          	li	a0,0
    4ee4:	01010113          	addi	sp,sp,16
    4ee8:	00008067          	ret

00004eec <__fp_unlock>:
    4eec:	06452783          	lw	a5,100(a0)
    4ef0:	0017f793          	andi	a5,a5,1
    4ef4:	00079863          	bnez	a5,4f04 <__fp_unlock+0x18>
    4ef8:	00c55783          	lhu	a5,12(a0)
    4efc:	2007f793          	andi	a5,a5,512
    4f00:	00078663          	beqz	a5,4f0c <__fp_unlock+0x20>
    4f04:	00000513          	li	a0,0
    4f08:	00008067          	ret
    4f0c:	05852503          	lw	a0,88(a0)
    4f10:	ff010113          	addi	sp,sp,-16
    4f14:	00112623          	sw	ra,12(sp)
    4f18:	6fc010ef          	jal	ra,6614 <__retarget_lock_release_recursive>
    4f1c:	00c12083          	lw	ra,12(sp)
    4f20:	00000513          	li	a0,0
    4f24:	01010113          	addi	sp,sp,16
    4f28:	00008067          	ret

00004f2c <__sfmoreglue>:
    4f2c:	ff010113          	addi	sp,sp,-16
    4f30:	00912223          	sw	s1,4(sp)
    4f34:	06800793          	li	a5,104
    4f38:	fff58493          	addi	s1,a1,-1
    4f3c:	02f484b3          	mul	s1,s1,a5
    4f40:	01212023          	sw	s2,0(sp)
    4f44:	00058913          	mv	s2,a1
    4f48:	00812423          	sw	s0,8(sp)
    4f4c:	00112623          	sw	ra,12(sp)
    4f50:	07448593          	addi	a1,s1,116
    4f54:	12d010ef          	jal	ra,6880 <_malloc_r>
    4f58:	00050413          	mv	s0,a0
    4f5c:	02050063          	beqz	a0,4f7c <__sfmoreglue+0x50>
    4f60:	00c50513          	addi	a0,a0,12
    4f64:	00042023          	sw	zero,0(s0)
    4f68:	01242223          	sw	s2,4(s0)
    4f6c:	00a42423          	sw	a0,8(s0)
    4f70:	06848613          	addi	a2,s1,104
    4f74:	00000593          	li	a1,0
    4f78:	3fd020ef          	jal	ra,7b74 <memset>
    4f7c:	00c12083          	lw	ra,12(sp)
    4f80:	00040513          	mv	a0,s0
    4f84:	00812403          	lw	s0,8(sp)
    4f88:	00412483          	lw	s1,4(sp)
    4f8c:	00012903          	lw	s2,0(sp)
    4f90:	01010113          	addi	sp,sp,16
    4f94:	00008067          	ret

00004f98 <_cleanup>:
    4f98:	00007597          	auipc	a1,0x7
    4f9c:	af858593          	addi	a1,a1,-1288 # ba90 <_fclose_r>
    4fa0:	0001b517          	auipc	a0,0x1b
    4fa4:	0d052503          	lw	a0,208(a0) # 20070 <_global_impure_ptr>
    4fa8:	0910006f          	j	5838 <_fwalk_reent>

00004fac <__sinit>:
    4fac:	fe010113          	addi	sp,sp,-32
    4fb0:	00912a23          	sw	s1,20(sp)
    4fb4:	00050493          	mv	s1,a0
    4fb8:	0001d517          	auipc	a0,0x1d
    4fbc:	86050513          	addi	a0,a0,-1952 # 21818 <__lock___sinit_recursive_mutex>
    4fc0:	00112e23          	sw	ra,28(sp)
    4fc4:	00812c23          	sw	s0,24(sp)
    4fc8:	01212823          	sw	s2,16(sp)
    4fcc:	01312623          	sw	s3,12(sp)
    4fd0:	01412423          	sw	s4,8(sp)
    4fd4:	01512223          	sw	s5,4(sp)
    4fd8:	624010ef          	jal	ra,65fc <__retarget_lock_acquire_recursive>
    4fdc:	0384a783          	lw	a5,56(s1)
    4fe0:	14079863          	bnez	a5,5130 <__sinit+0x184>
    4fe4:	0044a403          	lw	s0,4(s1)
    4fe8:	00000717          	auipc	a4,0x0
    4fec:	eb870713          	addi	a4,a4,-328 # 4ea0 <_cleanup_r>
    4ff0:	02e4ae23          	sw	a4,60(s1)
    4ff4:	2ec48793          	addi	a5,s1,748
    4ff8:	00300713          	li	a4,3
    4ffc:	2ee4a223          	sw	a4,740(s1)
    5000:	2ef4a423          	sw	a5,744(s1)
    5004:	2e04a023          	sw	zero,736(s1)
    5008:	00400793          	li	a5,4
    500c:	00f42623          	sw	a5,12(s0)
    5010:	00800613          	li	a2,8
    5014:	00000593          	li	a1,0
    5018:	00042023          	sw	zero,0(s0)
    501c:	00042223          	sw	zero,4(s0)
    5020:	00042423          	sw	zero,8(s0)
    5024:	06042223          	sw	zero,100(s0)
    5028:	00042823          	sw	zero,16(s0)
    502c:	00042a23          	sw	zero,20(s0)
    5030:	00042c23          	sw	zero,24(s0)
    5034:	05c40513          	addi	a0,s0,92
    5038:	33d020ef          	jal	ra,7b74 <memset>
    503c:	00004a97          	auipc	s5,0x4
    5040:	f40a8a93          	addi	s5,s5,-192 # 8f7c <__sread>
    5044:	00004a17          	auipc	s4,0x4
    5048:	f9ca0a13          	addi	s4,s4,-100 # 8fe0 <__swrite>
    504c:	00004997          	auipc	s3,0x4
    5050:	01c98993          	addi	s3,s3,28 # 9068 <__sseek>
    5054:	00004917          	auipc	s2,0x4
    5058:	08c90913          	addi	s2,s2,140 # 90e0 <__sclose>
    505c:	05840513          	addi	a0,s0,88
    5060:	00842e23          	sw	s0,28(s0)
    5064:	03542023          	sw	s5,32(s0)
    5068:	03442223          	sw	s4,36(s0)
    506c:	03342423          	sw	s3,40(s0)
    5070:	03242623          	sw	s2,44(s0)
    5074:	578010ef          	jal	ra,65ec <__retarget_lock_init_recursive>
    5078:	0084a403          	lw	s0,8(s1)
    507c:	000107b7          	lui	a5,0x10
    5080:	00978793          	addi	a5,a5,9 # 10009 <__clzsi2+0xd>
    5084:	00f42623          	sw	a5,12(s0)
    5088:	00800613          	li	a2,8
    508c:	00000593          	li	a1,0
    5090:	00042023          	sw	zero,0(s0)
    5094:	00042223          	sw	zero,4(s0)
    5098:	00042423          	sw	zero,8(s0)
    509c:	06042223          	sw	zero,100(s0)
    50a0:	00042823          	sw	zero,16(s0)
    50a4:	00042a23          	sw	zero,20(s0)
    50a8:	00042c23          	sw	zero,24(s0)
    50ac:	05c40513          	addi	a0,s0,92
    50b0:	2c5020ef          	jal	ra,7b74 <memset>
    50b4:	05840513          	addi	a0,s0,88
    50b8:	00842e23          	sw	s0,28(s0)
    50bc:	03542023          	sw	s5,32(s0)
    50c0:	03442223          	sw	s4,36(s0)
    50c4:	03342423          	sw	s3,40(s0)
    50c8:	03242623          	sw	s2,44(s0)
    50cc:	520010ef          	jal	ra,65ec <__retarget_lock_init_recursive>
    50d0:	00c4a403          	lw	s0,12(s1)
    50d4:	000207b7          	lui	a5,0x20
    50d8:	01278793          	addi	a5,a5,18 # 20012 <__DTOR_END__+0x2>
    50dc:	00f42623          	sw	a5,12(s0)
    50e0:	00800613          	li	a2,8
    50e4:	00000593          	li	a1,0
    50e8:	00042023          	sw	zero,0(s0)
    50ec:	00042223          	sw	zero,4(s0)
    50f0:	00042423          	sw	zero,8(s0)
    50f4:	06042223          	sw	zero,100(s0)
    50f8:	00042823          	sw	zero,16(s0)
    50fc:	00042a23          	sw	zero,20(s0)
    5100:	00042c23          	sw	zero,24(s0)
    5104:	05c40513          	addi	a0,s0,92
    5108:	26d020ef          	jal	ra,7b74 <memset>
    510c:	05840513          	addi	a0,s0,88
    5110:	00842e23          	sw	s0,28(s0)
    5114:	03542023          	sw	s5,32(s0)
    5118:	03442223          	sw	s4,36(s0)
    511c:	03342423          	sw	s3,40(s0)
    5120:	03242623          	sw	s2,44(s0)
    5124:	4c8010ef          	jal	ra,65ec <__retarget_lock_init_recursive>
    5128:	00100793          	li	a5,1
    512c:	02f4ac23          	sw	a5,56(s1)
    5130:	01812403          	lw	s0,24(sp)
    5134:	01c12083          	lw	ra,28(sp)
    5138:	01412483          	lw	s1,20(sp)
    513c:	01012903          	lw	s2,16(sp)
    5140:	00c12983          	lw	s3,12(sp)
    5144:	00812a03          	lw	s4,8(sp)
    5148:	00412a83          	lw	s5,4(sp)
    514c:	0001c517          	auipc	a0,0x1c
    5150:	6cc50513          	addi	a0,a0,1740 # 21818 <__lock___sinit_recursive_mutex>
    5154:	02010113          	addi	sp,sp,32
    5158:	4bc0106f          	j	6614 <__retarget_lock_release_recursive>

0000515c <__sfp>:
    515c:	fe010113          	addi	sp,sp,-32
    5160:	01312623          	sw	s3,12(sp)
    5164:	00050993          	mv	s3,a0
    5168:	0001c517          	auipc	a0,0x1c
    516c:	6ac50513          	addi	a0,a0,1708 # 21814 <__lock___sfp_recursive_mutex>
    5170:	01212823          	sw	s2,16(sp)
    5174:	00112e23          	sw	ra,28(sp)
    5178:	00812c23          	sw	s0,24(sp)
    517c:	00912a23          	sw	s1,20(sp)
    5180:	47c010ef          	jal	ra,65fc <__retarget_lock_acquire_recursive>
    5184:	0001b917          	auipc	s2,0x1b
    5188:	eec92903          	lw	s2,-276(s2) # 20070 <_global_impure_ptr>
    518c:	03892783          	lw	a5,56(s2)
    5190:	0c078063          	beqz	a5,5250 <__sfp+0xf4>
    5194:	2e090913          	addi	s2,s2,736
    5198:	fff00493          	li	s1,-1
    519c:	00492783          	lw	a5,4(s2)
    51a0:	00892403          	lw	s0,8(s2)
    51a4:	fff78793          	addi	a5,a5,-1
    51a8:	0007d863          	bgez	a5,51b8 <__sfp+0x5c>
    51ac:	0940006f          	j	5240 <__sfp+0xe4>
    51b0:	06840413          	addi	s0,s0,104
    51b4:	08978663          	beq	a5,s1,5240 <__sfp+0xe4>
    51b8:	00c41703          	lh	a4,12(s0)
    51bc:	fff78793          	addi	a5,a5,-1
    51c0:	fe0718e3          	bnez	a4,51b0 <__sfp+0x54>
    51c4:	ffff07b7          	lui	a5,0xffff0
    51c8:	00178793          	addi	a5,a5,1 # ffff0001 <_stack+0xfffb0001>
    51cc:	00f42623          	sw	a5,12(s0)
    51d0:	05840513          	addi	a0,s0,88
    51d4:	06042223          	sw	zero,100(s0)
    51d8:	414010ef          	jal	ra,65ec <__retarget_lock_init_recursive>
    51dc:	0001c517          	auipc	a0,0x1c
    51e0:	63850513          	addi	a0,a0,1592 # 21814 <__lock___sfp_recursive_mutex>
    51e4:	430010ef          	jal	ra,6614 <__retarget_lock_release_recursive>
    51e8:	00800613          	li	a2,8
    51ec:	00042023          	sw	zero,0(s0)
    51f0:	00042423          	sw	zero,8(s0)
    51f4:	00042223          	sw	zero,4(s0)
    51f8:	00042823          	sw	zero,16(s0)
    51fc:	00042a23          	sw	zero,20(s0)
    5200:	00042c23          	sw	zero,24(s0)
    5204:	00000593          	li	a1,0
    5208:	05c40513          	addi	a0,s0,92
    520c:	169020ef          	jal	ra,7b74 <memset>
    5210:	02042823          	sw	zero,48(s0)
    5214:	02042a23          	sw	zero,52(s0)
    5218:	04042223          	sw	zero,68(s0)
    521c:	04042423          	sw	zero,72(s0)
    5220:	01c12083          	lw	ra,28(sp)
    5224:	00040513          	mv	a0,s0
    5228:	01812403          	lw	s0,24(sp)
    522c:	01412483          	lw	s1,20(sp)
    5230:	01012903          	lw	s2,16(sp)
    5234:	00c12983          	lw	s3,12(sp)
    5238:	02010113          	addi	sp,sp,32
    523c:	00008067          	ret
    5240:	00092403          	lw	s0,0(s2)
    5244:	00040c63          	beqz	s0,525c <__sfp+0x100>
    5248:	00040913          	mv	s2,s0
    524c:	f51ff06f          	j	519c <__sfp+0x40>
    5250:	00090513          	mv	a0,s2
    5254:	d59ff0ef          	jal	ra,4fac <__sinit>
    5258:	f3dff06f          	j	5194 <__sfp+0x38>
    525c:	1ac00593          	li	a1,428
    5260:	00098513          	mv	a0,s3
    5264:	61c010ef          	jal	ra,6880 <_malloc_r>
    5268:	00050413          	mv	s0,a0
    526c:	02050863          	beqz	a0,529c <__sfp+0x140>
    5270:	00c50513          	addi	a0,a0,12
    5274:	00400793          	li	a5,4
    5278:	00042023          	sw	zero,0(s0)
    527c:	00f42223          	sw	a5,4(s0)
    5280:	00a42423          	sw	a0,8(s0)
    5284:	1a000613          	li	a2,416
    5288:	00000593          	li	a1,0
    528c:	0e9020ef          	jal	ra,7b74 <memset>
    5290:	00892023          	sw	s0,0(s2)
    5294:	00040913          	mv	s2,s0
    5298:	f05ff06f          	j	519c <__sfp+0x40>
    529c:	00092023          	sw	zero,0(s2)
    52a0:	0001c517          	auipc	a0,0x1c
    52a4:	57450513          	addi	a0,a0,1396 # 21814 <__lock___sfp_recursive_mutex>
    52a8:	36c010ef          	jal	ra,6614 <__retarget_lock_release_recursive>
    52ac:	00c00793          	li	a5,12
    52b0:	00f9a023          	sw	a5,0(s3)
    52b4:	f6dff06f          	j	5220 <__sfp+0xc4>

000052b8 <__sfp_lock_acquire>:
    52b8:	0001c517          	auipc	a0,0x1c
    52bc:	55c50513          	addi	a0,a0,1372 # 21814 <__lock___sfp_recursive_mutex>
    52c0:	33c0106f          	j	65fc <__retarget_lock_acquire_recursive>

000052c4 <__sfp_lock_release>:
    52c4:	0001c517          	auipc	a0,0x1c
    52c8:	55050513          	addi	a0,a0,1360 # 21814 <__lock___sfp_recursive_mutex>
    52cc:	3480106f          	j	6614 <__retarget_lock_release_recursive>

000052d0 <__sinit_lock_acquire>:
    52d0:	0001c517          	auipc	a0,0x1c
    52d4:	54850513          	addi	a0,a0,1352 # 21818 <__lock___sinit_recursive_mutex>
    52d8:	3240106f          	j	65fc <__retarget_lock_acquire_recursive>

000052dc <__sinit_lock_release>:
    52dc:	0001c517          	auipc	a0,0x1c
    52e0:	53c50513          	addi	a0,a0,1340 # 21818 <__lock___sinit_recursive_mutex>
    52e4:	3300106f          	j	6614 <__retarget_lock_release_recursive>

000052e8 <__fp_lock_all>:
    52e8:	ff010113          	addi	sp,sp,-16
    52ec:	0001c517          	auipc	a0,0x1c
    52f0:	52850513          	addi	a0,a0,1320 # 21814 <__lock___sfp_recursive_mutex>
    52f4:	00112623          	sw	ra,12(sp)
    52f8:	304010ef          	jal	ra,65fc <__retarget_lock_acquire_recursive>
    52fc:	00c12083          	lw	ra,12(sp)
    5300:	0001b517          	auipc	a0,0x1b
    5304:	d8052503          	lw	a0,-640(a0) # 20080 <_impure_ptr>
    5308:	00000597          	auipc	a1,0x0
    530c:	ba458593          	addi	a1,a1,-1116 # 4eac <__fp_lock>
    5310:	01010113          	addi	sp,sp,16
    5314:	4800006f          	j	5794 <_fwalk>

00005318 <__fp_unlock_all>:
    5318:	ff010113          	addi	sp,sp,-16
    531c:	00000597          	auipc	a1,0x0
    5320:	bd058593          	addi	a1,a1,-1072 # 4eec <__fp_unlock>
    5324:	0001b517          	auipc	a0,0x1b
    5328:	d5c52503          	lw	a0,-676(a0) # 20080 <_impure_ptr>
    532c:	00112623          	sw	ra,12(sp)
    5330:	464000ef          	jal	ra,5794 <_fwalk>
    5334:	00c12083          	lw	ra,12(sp)
    5338:	0001c517          	auipc	a0,0x1c
    533c:	4dc50513          	addi	a0,a0,1244 # 21814 <__lock___sfp_recursive_mutex>
    5340:	01010113          	addi	sp,sp,16
    5344:	2d00106f          	j	6614 <__retarget_lock_release_recursive>

00005348 <_malloc_trim_r>:
    5348:	fe010113          	addi	sp,sp,-32
    534c:	00812c23          	sw	s0,24(sp)
    5350:	00912a23          	sw	s1,20(sp)
    5354:	01212823          	sw	s2,16(sp)
    5358:	01312623          	sw	s3,12(sp)
    535c:	01412423          	sw	s4,8(sp)
    5360:	00058993          	mv	s3,a1
    5364:	00112e23          	sw	ra,28(sp)
    5368:	0001ca17          	auipc	s4,0x1c
    536c:	084a0a13          	addi	s4,s4,132 # 213ec <__malloc_av_>
    5370:	00050913          	mv	s2,a0
    5374:	0dd020ef          	jal	ra,7c50 <__malloc_lock>
    5378:	008a2703          	lw	a4,8(s4)
    537c:	000017b7          	lui	a5,0x1
    5380:	fef78413          	addi	s0,a5,-17 # fef <_vfprintf_r+0xe1b>
    5384:	00472483          	lw	s1,4(a4)
    5388:	ffc4f493          	andi	s1,s1,-4
    538c:	00848433          	add	s0,s1,s0
    5390:	41340433          	sub	s0,s0,s3
    5394:	00c45413          	srli	s0,s0,0xc
    5398:	fff40413          	addi	s0,s0,-1
    539c:	00c41413          	slli	s0,s0,0xc
    53a0:	00f44e63          	blt	s0,a5,53bc <_malloc_trim_r+0x74>
    53a4:	00000593          	li	a1,0
    53a8:	00090513          	mv	a0,s2
    53ac:	2c9030ef          	jal	ra,8e74 <_sbrk_r>
    53b0:	008a2783          	lw	a5,8(s4)
    53b4:	009787b3          	add	a5,a5,s1
    53b8:	02f50863          	beq	a0,a5,53e8 <_malloc_trim_r+0xa0>
    53bc:	00090513          	mv	a0,s2
    53c0:	09d020ef          	jal	ra,7c5c <__malloc_unlock>
    53c4:	01c12083          	lw	ra,28(sp)
    53c8:	01812403          	lw	s0,24(sp)
    53cc:	01412483          	lw	s1,20(sp)
    53d0:	01012903          	lw	s2,16(sp)
    53d4:	00c12983          	lw	s3,12(sp)
    53d8:	00812a03          	lw	s4,8(sp)
    53dc:	00000513          	li	a0,0
    53e0:	02010113          	addi	sp,sp,32
    53e4:	00008067          	ret
    53e8:	408005b3          	neg	a1,s0
    53ec:	00090513          	mv	a0,s2
    53f0:	285030ef          	jal	ra,8e74 <_sbrk_r>
    53f4:	fff00793          	li	a5,-1
    53f8:	04f50a63          	beq	a0,a5,544c <_malloc_trim_r+0x104>
    53fc:	0001c717          	auipc	a4,0x1c
    5400:	6e070713          	addi	a4,a4,1760 # 21adc <__malloc_current_mallinfo>
    5404:	00072783          	lw	a5,0(a4)
    5408:	008a2683          	lw	a3,8(s4)
    540c:	408484b3          	sub	s1,s1,s0
    5410:	0014e493          	ori	s1,s1,1
    5414:	408787b3          	sub	a5,a5,s0
    5418:	00090513          	mv	a0,s2
    541c:	0096a223          	sw	s1,4(a3)
    5420:	00f72023          	sw	a5,0(a4)
    5424:	039020ef          	jal	ra,7c5c <__malloc_unlock>
    5428:	01c12083          	lw	ra,28(sp)
    542c:	01812403          	lw	s0,24(sp)
    5430:	01412483          	lw	s1,20(sp)
    5434:	01012903          	lw	s2,16(sp)
    5438:	00c12983          	lw	s3,12(sp)
    543c:	00812a03          	lw	s4,8(sp)
    5440:	00100513          	li	a0,1
    5444:	02010113          	addi	sp,sp,32
    5448:	00008067          	ret
    544c:	00000593          	li	a1,0
    5450:	00090513          	mv	a0,s2
    5454:	221030ef          	jal	ra,8e74 <_sbrk_r>
    5458:	008a2703          	lw	a4,8(s4)
    545c:	00f00693          	li	a3,15
    5460:	40e507b3          	sub	a5,a0,a4
    5464:	f4f6dce3          	bge	a3,a5,53bc <_malloc_trim_r+0x74>
    5468:	0001b697          	auipc	a3,0x1b
    546c:	c1c6a683          	lw	a3,-996(a3) # 20084 <__malloc_sbrk_base>
    5470:	40d50533          	sub	a0,a0,a3
    5474:	0017e793          	ori	a5,a5,1
    5478:	0001c697          	auipc	a3,0x1c
    547c:	66a6a223          	sw	a0,1636(a3) # 21adc <__malloc_current_mallinfo>
    5480:	00f72223          	sw	a5,4(a4)
    5484:	f39ff06f          	j	53bc <_malloc_trim_r+0x74>

00005488 <_free_r>:
    5488:	18058263          	beqz	a1,560c <_free_r+0x184>
    548c:	ff010113          	addi	sp,sp,-16
    5490:	00812423          	sw	s0,8(sp)
    5494:	00912223          	sw	s1,4(sp)
    5498:	00058413          	mv	s0,a1
    549c:	00050493          	mv	s1,a0
    54a0:	00112623          	sw	ra,12(sp)
    54a4:	7ac020ef          	jal	ra,7c50 <__malloc_lock>
    54a8:	ffc42583          	lw	a1,-4(s0)
    54ac:	ff840713          	addi	a4,s0,-8
    54b0:	0001c517          	auipc	a0,0x1c
    54b4:	f3c50513          	addi	a0,a0,-196 # 213ec <__malloc_av_>
    54b8:	ffe5f793          	andi	a5,a1,-2
    54bc:	00f70633          	add	a2,a4,a5
    54c0:	00462683          	lw	a3,4(a2)
    54c4:	00852803          	lw	a6,8(a0)
    54c8:	ffc6f693          	andi	a3,a3,-4
    54cc:	1ac80263          	beq	a6,a2,5670 <_free_r+0x1e8>
    54d0:	00d62223          	sw	a3,4(a2)
    54d4:	0015f593          	andi	a1,a1,1
    54d8:	00d60833          	add	a6,a2,a3
    54dc:	0a059063          	bnez	a1,557c <_free_r+0xf4>
    54e0:	ff842303          	lw	t1,-8(s0)
    54e4:	00482583          	lw	a1,4(a6)
    54e8:	0001c897          	auipc	a7,0x1c
    54ec:	f0c88893          	addi	a7,a7,-244 # 213f4 <__malloc_av_+0x8>
    54f0:	40670733          	sub	a4,a4,t1
    54f4:	00872803          	lw	a6,8(a4)
    54f8:	006787b3          	add	a5,a5,t1
    54fc:	0015f593          	andi	a1,a1,1
    5500:	15180263          	beq	a6,a7,5644 <_free_r+0x1bc>
    5504:	00c72303          	lw	t1,12(a4)
    5508:	00682623          	sw	t1,12(a6)
    550c:	01032423          	sw	a6,8(t1)
    5510:	1a058a63          	beqz	a1,56c4 <_free_r+0x23c>
    5514:	0017e693          	ori	a3,a5,1
    5518:	00d72223          	sw	a3,4(a4)
    551c:	00f62023          	sw	a5,0(a2)
    5520:	1ff00693          	li	a3,511
    5524:	06f6ec63          	bltu	a3,a5,559c <_free_r+0x114>
    5528:	ff87f693          	andi	a3,a5,-8
    552c:	00868693          	addi	a3,a3,8
    5530:	00452583          	lw	a1,4(a0)
    5534:	00d506b3          	add	a3,a0,a3
    5538:	0006a603          	lw	a2,0(a3)
    553c:	0057d813          	srli	a6,a5,0x5
    5540:	00100793          	li	a5,1
    5544:	010797b3          	sll	a5,a5,a6
    5548:	00b7e7b3          	or	a5,a5,a1
    554c:	ff868593          	addi	a1,a3,-8
    5550:	00b72623          	sw	a1,12(a4)
    5554:	00c72423          	sw	a2,8(a4)
    5558:	00f52223          	sw	a5,4(a0)
    555c:	00e6a023          	sw	a4,0(a3)
    5560:	00e62623          	sw	a4,12(a2)
    5564:	00812403          	lw	s0,8(sp)
    5568:	00c12083          	lw	ra,12(sp)
    556c:	00048513          	mv	a0,s1
    5570:	00412483          	lw	s1,4(sp)
    5574:	01010113          	addi	sp,sp,16
    5578:	6e40206f          	j	7c5c <__malloc_unlock>
    557c:	00482583          	lw	a1,4(a6)
    5580:	0015f593          	andi	a1,a1,1
    5584:	08058663          	beqz	a1,5610 <_free_r+0x188>
    5588:	0017e693          	ori	a3,a5,1
    558c:	fed42e23          	sw	a3,-4(s0)
    5590:	00f62023          	sw	a5,0(a2)
    5594:	1ff00693          	li	a3,511
    5598:	f8f6f8e3          	bgeu	a3,a5,5528 <_free_r+0xa0>
    559c:	0097d693          	srli	a3,a5,0x9
